                 U _ACAccountTypeIdentifierTwitter
                 U _AUGraphAddNode
                 U _AUGraphConnectNodeInput
                 U _AUGraphInitialize
                 U _AUGraphNodeInfo
                 U _AUGraphOpen
                 U _AUGraphRemoveNode
                 U _AUGraphSetNodeInputCallback
                 U _AUGraphStart
                 U _AUGraphStop
                 U _AUGraphUninitialize
                 U _AVAudioSessionCategoryAmbient
                 U _AVAudioSessionCategoryPlayAndRecord
                 U _AVAudioSessionCategoryPlayback
                 U _AVAudioSessionCategorySoloAmbient
                 U _AVAudioSessionInterruptionNotification
                 U _AVAudioSessionInterruptionTypeKey
                 U _AVAudioSessionMediaServicesWereResetNotification
                 U _AVAudioSessionModeDefault
                 U _AVAudioSessionModeGameChat
                 U _AVAudioSessionModeMeasurement
                 U _AVAudioSessionModeMoviePlayback
                 U _AVAudioSessionModeVideoChat
                 U _AVAudioSessionModeVideoRecording
                 U _AVAudioSessionModeVoiceChat
                 U _AVAudioSessionOrientationFront
                 U _AVAudioSessionPortAirPlay
                 U _AVAudioSessionPortBluetoothA2DP
                 U _AVAudioSessionPortBluetoothHFP
                 U _AVAudioSessionPortBluetoothLE
                 U _AVAudioSessionPortBuiltInMic
                 U _AVAudioSessionPortBuiltInReceiver
                 U _AVAudioSessionPortBuiltInSpeaker
                 U _AVAudioSessionPortHDMI
                 U _AVAudioSessionPortHeadphones
                 U _AVAudioSessionPortHeadsetMic
                 U _AVAudioSessionPortLineOut
                 U _AVAudioSessionRouteChangeNotification
                 U _AVAudioSessionRouteChangeReasonKey
                 U _AVAudioSessionSilenceSecondaryAudioHintNotification
                 U _AVAudioSessionSilenceSecondaryAudioHintTypeKey
                 U _AVLayerVideoGravityResizeAspect
                 U _AVMediaTypeAudio
                 U _AVMediaTypeClosedCaption
                 U _AVMediaTypeSubtitle
                 U _AVMediaTypeText
                 U _AVMediaTypeTimecode
                 U _AVMediaTypeVideo
                 U _AVPlayerItemDidPlayToEndTimeNotification
                 U _AVPlayerItemFailedToPlayToEndTimeNotification
                 U _AVPlayerItemNewAccessLogEntryNotification
                 U _AVPlayerItemNewErrorLogEntryNotification
                 U _AudioComponentFindNext
                 U _AudioComponentInstanceDispose
                 U _AudioComponentInstanceNew
                 U _AudioConverterDispose
                 U _AudioFileClose
                 U _AudioFileGetProperty
                 U _AudioFileGetPropertyInfo
                 U _AudioFileOpenWithCallbacks
                 U _AudioFileReadPackets
                 U _AudioOutputUnitStart
                 U _AudioOutputUnitStop
                 U _AudioQueueAllocateBuffer
                 U _AudioQueueAllocateBufferWithPacketDescriptions
                 U _AudioQueueDispose
                 U _AudioQueueEnqueueBufferWithParameters
                 U _AudioQueueFlush
                 U _AudioQueueNewOutput
                 U _AudioQueueOfflineRender
                 U _AudioQueueSetOfflineRenderFormat
                 U _AudioQueueSetProperty
                 U _AudioQueueStart
                 U _AudioQueueStop
                 U _AudioServicesAddSystemSoundCompletion
                 U _AudioServicesCreateSystemSoundID
                 U _AudioServicesPlaySystemSound
                 U _AudioServicesRemoveSystemSoundCompletion
                 U _AudioSessionAddPropertyListener
                 U _AudioSessionGetProperty
                 U _AudioSessionInitialize
                 U _AudioSessionRemovePropertyListener
                 U _AudioSessionSetActive
                 U _AudioSessionSetProperty
                 U _AudioUnitInitialize
                 U _AudioUnitRender
                 U _AudioUnitSetParameter
                 U _AudioUnitSetProperty
                 U _AudioUnitUninitialize
                 U _CACurrentMediaTime
                 U _CAShow
                 U _CATransform3DMakeScale
                 U _CCCrypt
                 U _CCHmac
                 U _CCHmacFinal
                 U _CCHmacInit
                 U _CCHmacUpdate
                 U _CC_MD4
                 U _CC_MD5
                 U _CC_MD5_Final
                 U _CC_MD5_Init
                 U _CC_MD5_Update
                 U _CC_SHA1
                 U _CC_SHA1_Final
                 U _CC_SHA1_Init
                 U _CC_SHA1_Update
                 U _CC_SHA256
                 U _CC_SHA512
                 U _CFAbsoluteTimeGetCurrent
                 U _CFArrayAppendValue
                 U _CFArrayCreate
                 U _CFArrayCreateMutable
                 U _CFArrayGetCount
                 U _CFArrayGetFirstIndexOfValue
                 U _CFArrayGetValueAtIndex
                 U _CFArrayInsertValueAtIndex
                 U _CFArrayRemoveAllValues
                 U _CFArrayRemoveValueAtIndex
                 U _CFArraySetValueAtIndex
                 U _CFAutorelease
                 U _CFBinaryHeapAddValue
                 U _CFBinaryHeapContainsValue
                 U _CFBinaryHeapCreate
                 U _CFBinaryHeapGetCount
                 U _CFBinaryHeapGetMinimum
                 U _CFBinaryHeapGetValues
                 U _CFBinaryHeapRemoveMinimumValue
                 U _CFBundleCopyResourceURL
                 U _CFBundleGetInfoDictionary
                 U _CFBundleGetMainBundle
                 U _CFBundleGetValueForInfoDictionaryKey
                 U _CFCopyDescription
                 U _CFDataCreate
                 U _CFDataGetBytePtr
                 U _CFDataGetLength
                 U _CFDataGetTypeID
                 U _CFDateCreate
                 U _CFDictionaryAddValue
                 U _CFDictionaryCreate
                 U _CFDictionaryCreateMutable
                 U _CFDictionaryGetValue
                 U _CFDictionaryGetValueIfPresent
                 U _CFEqual
                 U _CFGetRetainCount
                 U _CFGetTypeID
                 U _CFHTTPMessageAppendBytes
                 U _CFHTTPMessageCopyAllHeaderFields
                 U _CFHTTPMessageCopyHeaderFieldValue
                 U _CFHTTPMessageCopySerializedMessage
                 U _CFHTTPMessageCreateEmpty
                 U _CFHTTPMessageCreateRequest
                 U _CFHTTPMessageGetResponseStatusCode
                 U _CFHTTPMessageIsHeaderComplete
                 U _CFHTTPMessageSetHeaderFieldValue
                 U _CFHash
                 U _CFHostCreateWithName
                 U _CFHostGetAddressing
                 U _CFHostScheduleWithRunLoop
                 U _CFHostSetClient
                 U _CFHostStartInfoResolution
                 U _CFHostUnscheduleFromRunLoop
                 U _CFLocaleCopyCurrent
                 U _CFLocaleCopyPreferredLanguages
                 U _CFLocaleGetValue
                 U _CFNetworkCopyProxiesForAutoConfigurationScript
                 U _CFNetworkCopyProxiesForURL
                 U _CFNetworkCopySystemProxySettings
                 U _CFNotificationCenterAddObserver
                 U _CFNotificationCenterGetLocalCenter
                 U _CFNotificationCenterRemoveEveryObserver
                 U _CFNumberGetValue
                 U _CFNumberIsFloatType
                 U _CFReadStreamClose
                 U _CFReadStreamCopyError
                 U _CFReadStreamGetStatus
                 U _CFReadStreamOpen
                 U _CFReadStreamRead
                 U _CFReadStreamScheduleWithRunLoop
                 U _CFReadStreamSetClient
                 U _CFReadStreamSetProperty
                 U _CFReadStreamUnscheduleFromRunLoop
                 U _CFRelease
                 U _CFRetain
                 U _CFRunLoopAddObserver
                 U _CFRunLoopAddSource
                 U _CFRunLoopGetCurrent
                 U _CFRunLoopGetMain
                 U _CFRunLoopObserverCreate
                 U _CFRunLoopPerformBlock
                 U _CFRunLoopRemoveObserver
                 U _CFRunLoopRun
                 U _CFRunLoopSourceCreate
                 U _CFRunLoopStop
                 U _CFSetCreateMutable
                 U _CFSocketCreateRunLoopSource
                 U _CFSocketCreateWithNative
                 U _CFSocketGetNative
                 U _CFSocketGetSocketFlags
                 U _CFSocketInvalidate
                 U _CFStreamCreatePairWithSocket
                 U _CFStreamCreatePairWithSocketToHost
                 U _CFStringAppend
                 U _CFStringAppendCharacters
                 U _CFStringAppendFormat
                 U _CFStringConvertEncodingToIANACharSetName
                 U _CFStringConvertEncodingToNSStringEncoding
                 U _CFStringConvertIANACharSetNameToEncoding
                 U _CFStringConvertNSStringEncodingToEncoding
                 U _CFStringCreateCopy
                 U _CFStringCreateMutable
                 U _CFStringCreateWithBytes
                 U _CFStringCreateWithCString
                 U _CFStringCreateWithFormat
                 U _CFStringCreateWithSubstring
                 U _CFStringGetBytes
                 U _CFStringGetCString
                 U _CFStringGetCStringPtr
                 U _CFStringGetCharacterAtIndex
                 U _CFStringGetCharactersPtr
                 U _CFStringGetFastestEncoding
                 U _CFStringGetLength
                 U _CFStringGetMaximumSizeForEncoding
                 U _CFStringHasPrefix
                 U _CFStringTokenizerCopyBestStringLanguage
                 U _CFStringTokenizerCreate
                 U _CFStringTokenizerGetCurrentTokenRange
                 U _CFStringTokenizerGoToTokenAtIndex
                 U _CFStringTokenizerSetString
                 U _CFStringTransform
                 U _CFURLCopyPath
                 U _CFURLCreateDataAndPropertiesFromResource
                 U _CFURLCreateFromFileSystemRepresentation
                 U _CFURLCreateStringByAddingPercentEscapes
                 U _CFURLCreateStringByReplacingPercentEscapes
                 U _CFURLCreateStringByReplacingPercentEscapesUsingEncoding
                 U _CFUUIDCreate
                 U _CFUUIDCreateFromUUIDBytes
                 U _CFUUIDCreateString
                 U _CFUUIDGetUUIDBytes
                 U _CFWriteStreamClose
                 U _CFWriteStreamCopyError
                 U _CFWriteStreamGetStatus
                 U _CFWriteStreamOpen
                 U _CFWriteStreamScheduleWithRunLoop
                 U _CFWriteStreamSetClient
                 U _CFWriteStreamSetProperty
                 U _CFWriteStreamUnscheduleFromRunLoop
                 U _CFWriteStreamWrite
                 U _CGAffineTransformConcat
                 U _CGAffineTransformEqualToTransform
                 U _CGAffineTransformIdentity
                 U _CGAffineTransformIsIdentity
                 U _CGAffineTransformMakeRotation
                 U _CGAffineTransformMakeScale
                 U _CGAffineTransformMakeTranslation
                 U _CGAffineTransformRotate
                 U _CGAffineTransformScale
                 U _CGAffineTransformTranslate
                 U _CGBitmapContextCreate
                 U _CGBitmapContextCreateImage
                 U _CGColorCreate
                 U _CGColorGetAlpha
                 U _CGColorGetColorSpace
                 U _CGColorGetComponents
                 U _CGColorGetNumberOfComponents
                 U _CGColorRelease
                 U _CGColorRetain
                 U _CGColorSpaceCreateDeviceGray
                 U _CGColorSpaceCreateDeviceRGB
                 U _CGColorSpaceGetModel
                 U _CGColorSpaceRelease
                 U _CGContextAddArc
                 U _CGContextAddArcToPoint
                 U _CGContextAddLineToPoint
                 U _CGContextAddLines
                 U _CGContextAddPath
                 U _CGContextAddRect
                 U _CGContextBeginPath
                 U _CGContextBeginTransparencyLayer
                 U _CGContextClearRect
                 U _CGContextClip
                 U _CGContextClipToMask
                 U _CGContextClipToRect
                 U _CGContextClosePath
                 U _CGContextConcatCTM
                 U _CGContextDrawImage
                 U _CGContextDrawLinearGradient
                 U _CGContextDrawPath
                 U _CGContextDrawRadialGradient
                 U _CGContextEOClip
                 U _CGContextEndTransparencyLayer
                 U _CGContextFillEllipseInRect
                 U _CGContextFillPath
                 U _CGContextFillRect
                 U _CGContextMoveToPoint
                 U _CGContextRelease
                 U _CGContextRestoreGState
                 U _CGContextRotateCTM
                 U _CGContextSaveGState
                 U _CGContextScaleCTM
                 U _CGContextSetFillColorWithColor
                 U _CGContextSetGrayFillColor
                 U _CGContextSetGrayStrokeColor
                 U _CGContextSetInterpolationQuality
                 U _CGContextSetLineJoin
                 U _CGContextSetLineWidth
                 U _CGContextSetRGBFillColor
                 U _CGContextSetRGBStrokeColor
                 U _CGContextSetShadowWithColor
                 U _CGContextSetStrokeColorWithColor
                 U _CGContextSetTextMatrix
                 U _CGContextSetTextPosition
                 U _CGContextStrokeEllipseInRect
                 U _CGContextStrokePath
                 U _CGContextStrokeRect
                 U _CGContextTranslateCTM
                 U _CGDataProviderCreateWithCFData
                 U _CGDataProviderRelease
                 U _CGFontCopyTableForTag
                 U _CGFontCopyTableTags
                 U _CGFontCreateWithFontName
                 U _CGGradientCreateWithColorComponents
                 U _CGGradientCreateWithColors
                 U _CGGradientRelease
                 U _CGImageCreateCopy
                 U _CGImageCreateWithImageInRect
                 U _CGImageCreateWithJPEGDataProvider
                 U _CGImageCreateWithPNGDataProvider
                 U _CGImageGetAlphaInfo
                 U _CGImageGetBitmapInfo
                 U _CGImageGetBitsPerComponent
                 U _CGImageGetColorSpace
                 U _CGImageGetHeight
                 U _CGImageGetWidth
                 U _CGImageRelease
                 U _CGPathAddArcToPoint
                 U _CGPathAddCurveToPoint
                 U _CGPathAddLineToPoint
                 U _CGPathAddLines
                 U _CGPathAddPath
                 U _CGPathAddRect
                 U _CGPathCloseSubpath
                 U _CGPathCreateCopy
                 U _CGPathCreateMutable
                 U _CGPathMoveToPoint
                 U _CGPathRelease
                 U _CGPointZero
                 U _CGRectContainsPoint
                 U _CGRectEqualToRect
                 U _CGRectFromString
                 U _CGRectGetHeight
                 U _CGRectGetMaxX
                 U _CGRectGetMaxY
                 U _CGRectGetMidX
                 U _CGRectGetMidY
                 U _CGRectGetMinX
                 U _CGRectGetMinY
                 U _CGRectGetWidth
                 U _CGRectInset
                 U _CGRectIntegral
                 U _CGRectIntersection
                 U _CGRectIntersectsRect
                 U _CGRectIsEmpty
                 U _CGRectIsNull
                 U _CGRectNull
                 U _CGRectOffset
                 U _CGRectStandardize
                 U _CGRectZero
                 U _CGSizeFromString
                 U _CGSizeZero
                 U _CKQueryOperationMaximumResults
                 U _CLLocationCoordinate2DIsValid
                 U _CMAudioFormatDescriptionGetStreamBasicDescription
                 U _CMFormatDescriptionGetMediaSubType
                 U _CMSampleBufferGetImageBuffer
                 U _CMSampleBufferGetPresentationTimeStamp
                 U _CMTimeCompare
                 U _CMTimeGetSeconds
                 U _CMTimeMake
                 U _CMTimeMakeWithSeconds
                 U _CMTimeRangeFromTimeToTime
                 U _CMTimeRangeGetEnd
                 U _CMTimeRangeMake
                 U _CMTimeSubtract
                 U _CNCopyCurrentNetworkInfo
                 U _CNCopySupportedInterfaces
                 U _CSSearchableItemActivityIdentifier
                 U _CTFontCopyName
                 U _CTFontCreateWithName
                 U _CTFontGetSize
                 U _CTFontGetUnderlineThickness
                 U _CTFrameGetLineOrigins
                 U _CTFrameGetLines
                 U _CTFramesetterCreateFrame
                 U _CTFramesetterCreateWithAttributedString
                 U _CTFramesetterSuggestFrameSizeWithConstraints
                 U _CTLineCreateTruncatedLine
                 U _CTLineCreateWithAttributedString
                 U _CTLineDraw
                 U _CTLineGetGlyphRuns
                 U _CTLineGetOffsetForStringIndex
                 U _CTLineGetPenOffsetForFlush
                 U _CTLineGetStringIndexForPosition
                 U _CTLineGetStringRange
                 U _CTLineGetTypographicBounds
                 U _CTParagraphStyleCreate
                 U _CTRadioAccessTechnologyCDMA1x
                 U _CTRadioAccessTechnologyCDMAEVDORev0
                 U _CTRadioAccessTechnologyCDMAEVDORevA
                 U _CTRadioAccessTechnologyCDMAEVDORevB
                 U _CTRadioAccessTechnologyDidChangeNotification
                 U _CTRadioAccessTechnologyEdge
                 U _CTRadioAccessTechnologyGPRS
                 U _CTRadioAccessTechnologyHSDPA
                 U _CTRadioAccessTechnologyHSUPA
                 U _CTRadioAccessTechnologyLTE
                 U _CTRadioAccessTechnologyWCDMA
                 U _CTRadioAccessTechnologyeHRPD
                 U _CTRunGetAttributes
                 U _CTRunGetStatus
                 U _CTRunGetStringRange
                 U _CTRunGetTypographicBounds
                 U _CVImageBufferGetEncodedSize
                 U _CVMetalTextureCacheCreate
                 U _CVMetalTextureCacheCreateTextureFromImage
                 U _CVMetalTextureGetTexture
                 U _CVPixelBufferGetBaseAddress
                 U _CVPixelBufferGetBytesPerRow
                 U _CVPixelBufferGetHeight
                 U _CVPixelBufferGetHeightOfPlane
                 U _CVPixelBufferGetWidth
                 U _CVPixelBufferGetWidthOfPlane
                 U _CVPixelBufferIsPlanar
                 U _CVPixelBufferLockBaseAddress
                 U _CVPixelBufferRelease
                 U _CVPixelBufferUnlockBaseAddress
                 U _DisposeAUGraph
                 U _GCControllerDidConnectNotification
                 U _GCControllerDidDisconnectNotification
                 U _MKCoordinateRegionMakeWithDistance
                 U _MPMoviePlayerPlaybackStateDidChangeNotification
                 U _MTLCommandBufferErrorDomain
                 U _MTLCreateSystemDefaultDevice
                 U _NDR_record
                 U _NSAllocateObject
                 U _NSBackgroundColorAttributeName
                 U _NSCalendarIdentifierGregorian
                 U _NSClassFromString
                 U _NSCocoaErrorDomain
                 U _NSDefaultRunLoopMode
                 U _NSDocumentTypeDocumentAttribute
                 U _NSFileCreationDate
                 U _NSFileImmutable
                 U _NSFileModificationDate
                 U _NSFilePosixPermissions
                 U _NSFileProtectionComplete
                 U _NSFileProtectionCompleteUnlessOpen
                 U _NSFileProtectionCompleteUntilFirstUserAuthentication
                 U _NSFileProtectionKey
                 U _NSFileProtectionNone
                 U _NSFileSize
                 U _NSFileSystemFreeSize
                 U _NSFileSystemSize
                 U _NSFontAttributeName
                 U _NSForegroundColorAttributeName
                 U _NSFoundationVersionNumber
                 U _NSGenericException
                 U _NSGetSizeAndAlignment
                 U _NSGetUncaughtExceptionHandler
                 U _NSGregorianCalendar
                 U _NSHTTPCookieDomain
                 U _NSHTTPCookieExpires
                 U _NSHTTPCookieName
                 U _NSHTTPCookiePath
                 U _NSHTTPCookieValue
                 U _NSHomeDirectory
                 U _NSInMemoryStoreType
                 U _NSInternalInconsistencyException
                 U _NSIntersectionRange
                 U _NSInvalidArgumentException
                 U _NSItemProviderPreferredImageSizeKey
                 U _NSKeyValueChangeNewKey
                 U _NSKeyValueChangeOldKey
                 U _NSKeyedArchiveRootObjectKey
                 U _NSLocaleCountryCode
                 U _NSLocaleCurrencyCode
                 U _NSLocaleCurrencySymbol
                 U _NSLocaleDecimalSeparator
                 U _NSLocaleGroupingSeparator
                 U _NSLocaleLanguageCode
                 U _NSLocalizedDescriptionKey
                 U _NSLocalizedFailureReasonErrorKey
                 U _NSLocalizedRecoveryOptionsErrorKey
                 U _NSLocalizedRecoverySuggestionErrorKey
                 U _NSLog
                 U _NSLogv
                 U _NSMachErrorDomain
                 U _NSPOSIXErrorDomain
                 U _NSParagraphStyleAttributeName
                 U _NSPlainTextDocumentType
                 U _NSProtocolFromString
                 U _NSRecoveryAttempterErrorKey
                 U _NSRunLoopCommonModes
                 U _NSSQLitePragmasOption
                 U _NSSQLiteStoreType
                 U _NSSearchPathForDirectoriesInDomains
                 U _NSSelectorFromString
                 U _NSSetUncaughtExceptionHandler
                 U _NSStreamDataWrittenToMemoryStreamKey
                 U _NSStreamFileCurrentOffsetKey
                 U _NSStreamNetworkServiceType
                 U _NSStreamNetworkServiceTypeBackground
                 U _NSStreamNetworkServiceTypeCallSignaling
                 U _NSStreamNetworkServiceTypeVideo
                 U _NSStreamNetworkServiceTypeVoIP
                 U _NSStreamNetworkServiceTypeVoice
                 U _NSStreamSOCKSProxyConfigurationKey
                 U _NSStreamSOCKSProxyHostKey
                 U _NSStreamSOCKSProxyPasswordKey
                 U _NSStreamSOCKSProxyPortKey
                 U _NSStreamSOCKSProxyUserKey
                 U _NSStringFromCGRect
                 U _NSStringFromCGSize
                 U _NSStringFromClass
                 U _NSStringFromProtocol
                 U _NSStringFromRange
                 U _NSStringFromSelector
                 U _NSTemporaryDirectory
                 U _NSURLAuthenticationMethodServerTrust
                 U _NSURLContentAccessDateKey
                 U _NSURLContentModificationDateKey
                 U _NSURLCreationDateKey
                 U _NSURLErrorDomain
                 U _NSURLErrorFailingURLErrorKey
                 U _NSURLErrorFailingURLPeerTrustErrorKey
                 U _NSURLErrorFailingURLStringErrorKey
                 U _NSURLIsDirectoryKey
                 U _NSURLIsExcludedFromBackupKey
                 U _NSURLNameKey
                 U _NSURLSessionTransferSizeUnknown
                 U _NSURLTotalFileAllocatedSizeKey
                 U _NSURLTotalFileSizeKey
                 U _NSURLTypeIdentifierKey
                 U _NSUbiquityIdentityDidChangeNotification
                 U _NSUnderlineStyleAttributeName
                 U _NSUnderlyingErrorKey
                 U _NSUnionRange
                 U _NSUserDefaultsDidChangeNotification
                 U _NSVersionOfLinkTimeLibrary
                 U _NSVersionOfRunTimeLibrary
                 U _NXGetArchInfoFromCpuType
                 U _NXGetLocalArchInfo
                 U _NewAUGraph
                 U _OBJC_CLASS_$_ACAccount
                 U _OBJC_CLASS_$_ACAccountCredential
                 U _OBJC_CLASS_$_ACAccountStore
                 U _OBJC_CLASS_$_ASIdentifierManager
                 U _OBJC_CLASS_$_AVAsset
                 U _OBJC_CLASS_$_AVAssetImageGenerator
                 U _OBJC_CLASS_$_AVAssetReader
                 U _OBJC_CLASS_$_AVAssetReaderTrackOutput
                 U _OBJC_CLASS_$_AVAudioPlayer
                 U _OBJC_CLASS_$_AVAudioSession
                 U _OBJC_CLASS_$_AVMutableAudioMix
                 U _OBJC_CLASS_$_AVMutableAudioMixInputParameters
                 U _OBJC_CLASS_$_AVMutableComposition
                 U _OBJC_CLASS_$_AVPlayer
                 U _OBJC_CLASS_$_AVPlayerItem
                 U _OBJC_CLASS_$_AVPlayerItemLegibleOutput
                 U _OBJC_CLASS_$_AVPlayerItemVideoOutput
                 U _OBJC_CLASS_$_AVPlayerLayer
                 U _OBJC_CLASS_$_AVURLAsset
                 U _OBJC_CLASS_$_CABasicAnimation
                 U _OBJC_CLASS_$_CADisplayLink
                 U _OBJC_CLASS_$_CAEAGLLayer
                 U _OBJC_CLASS_$_CAGradientLayer
                 U _OBJC_CLASS_$_CAKeyframeAnimation
                 U _OBJC_CLASS_$_CALayer
                 U _OBJC_CLASS_$_CAMediaTimingFunction
                 U _OBJC_CLASS_$_CAMetalLayer
                 U _OBJC_CLASS_$_CAShapeLayer
                 U _OBJC_CLASS_$_CATransaction
                 U _OBJC_CLASS_$_CATransition
                 U _OBJC_CLASS_$_CIContext
                 U _OBJC_CLASS_$_CIFilter
                 U _OBJC_CLASS_$_CKContainer
                 U _OBJC_CLASS_$_CKDatabase
                 U _OBJC_CLASS_$_CKQuery
                 U _OBJC_CLASS_$_CKQueryOperation
                 U _OBJC_CLASS_$_CKRecord
                 U _OBJC_CLASS_$_CKRecordID
                 U _OBJC_CLASS_$_CLLocation
                 U _OBJC_CLASS_$_CLLocationManager
                 U _OBJC_CLASS_$_CMMotionManager
                 U _OBJC_CLASS_$_CSSearchableIndex
                 U _OBJC_CLASS_$_CSSearchableItem
                 U _OBJC_CLASS_$_CSSearchableItemAttributeSet
                 U _OBJC_CLASS_$_CTTelephonyNetworkInfo
                 U _OBJC_CLASS_$_DCDevice
                 U _OBJC_CLASS_$_EAGLContext
                 U _OBJC_CLASS_$_GCController
                 U _OBJC_CLASS_$_GKAchievement
                 U _OBJC_CLASS_$_GKAchievementChallenge
                 U _OBJC_CLASS_$_GKAchievementDescription
                 U _OBJC_CLASS_$_GKChallenge
                 U _OBJC_CLASS_$_GKGameCenterViewController
                 U _OBJC_CLASS_$_GKLeaderboard
                 U _OBJC_CLASS_$_GKLocalPlayer
                 U _OBJC_CLASS_$_GKMatchRequest
                 U _OBJC_CLASS_$_GKPlayer
                 U _OBJC_CLASS_$_GKScore
                 U _OBJC_CLASS_$_GKScoreChallenge
                 U _OBJC_CLASS_$_GKTurnBasedMatch
                 U _OBJC_CLASS_$_GKTurnBasedMatchmakerViewController
                 U _OBJC_CLASS_$_GKTurnBasedParticipant
                 U _OBJC_CLASS_$_JSContext
                 U _OBJC_CLASS_$_MCPeerID
                 U _OBJC_CLASS_$_MCSession
                 U _OBJC_CLASS_$_MFMailComposeViewController
                 U _OBJC_CLASS_$_MFMessageComposeViewController
                 U _OBJC_CLASS_$_MKMapView
                 U _OBJC_CLASS_$_MPMoviePlayerController
                 U _OBJC_CLASS_$_MPRemoteCommandCenter
                 U _OBJC_CLASS_$_MPVolumeView
                 U _OBJC_CLASS_$_MTLCaptureManager
                 U _OBJC_CLASS_$_MTLCompileOptions
                 U _OBJC_CLASS_$_MTLComputePipelineDescriptor
                 U _OBJC_CLASS_$_MTLDepthStencilDescriptor
                 U _OBJC_CLASS_$_MTLFunctionConstantValues
                 U _OBJC_CLASS_$_MTLRenderPassColorAttachmentDescriptor
                 U _OBJC_CLASS_$_MTLRenderPassDepthAttachmentDescriptor
                 U _OBJC_CLASS_$_MTLRenderPassDescriptor
                 U _OBJC_CLASS_$_MTLRenderPassStencilAttachmentDescriptor
                 U _OBJC_CLASS_$_MTLRenderPipelineColorAttachmentDescriptor
                 U _OBJC_CLASS_$_MTLRenderPipelineDescriptor
                 U _OBJC_CLASS_$_MTLSamplerDescriptor
                 U _OBJC_CLASS_$_MTLStencilDescriptor
                 U _OBJC_CLASS_$_MTLTextureDescriptor
                 U _OBJC_CLASS_$_MTLVertexDescriptor
                 U _OBJC_CLASS_$_NSArray
                 U _OBJC_CLASS_$_NSAssertionHandler
                 U _OBJC_CLASS_$_NSAttributedString
                 U _OBJC_CLASS_$_NSAutoreleasePool
                 U _OBJC_CLASS_$_NSBlockOperation
                 U _OBJC_CLASS_$_NSBundle
                 U _OBJC_CLASS_$_NSBundleResourceRequest
                 U _OBJC_CLASS_$_NSCache
                 U _OBJC_CLASS_$_NSCachedURLResponse
                 U _OBJC_CLASS_$_NSCalendar
                 U _OBJC_CLASS_$_NSCharacterSet
                 U _OBJC_CLASS_$_NSCompoundPredicate
                 U _OBJC_CLASS_$_NSCondition
                 U _OBJC_CLASS_$_NSData
                 U _OBJC_CLASS_$_NSDate
                 U _OBJC_CLASS_$_NSDateComponents
                 U _OBJC_CLASS_$_NSDateFormatter
                 U _OBJC_CLASS_$_NSDecimalNumber
                 U _OBJC_CLASS_$_NSDictionary
                 U _OBJC_CLASS_$_NSEntityDescription
                 U _OBJC_CLASS_$_NSError
                 U _OBJC_CLASS_$_NSException
                 U _OBJC_CLASS_$_NSFetchRequest
                 U _OBJC_CLASS_$_NSFileHandle
                 U _OBJC_CLASS_$_NSFileManager
                 U _OBJC_CLASS_$_NSHTTPCookie
                 U _OBJC_CLASS_$_NSHTTPCookieStorage
                 U _OBJC_CLASS_$_NSHTTPURLResponse
                 U _OBJC_CLASS_$_NSHashTable
                 U _OBJC_CLASS_$_NSIndexPath
                 U _OBJC_CLASS_$_NSIndexSet
                 U _OBJC_CLASS_$_NSInputStream
                 U _OBJC_CLASS_$_NSInvocation
                 U _OBJC_CLASS_$_NSJSONSerialization
                 U _OBJC_CLASS_$_NSKeyedArchiver
                 U _OBJC_CLASS_$_NSKeyedUnarchiver
                 U _OBJC_CLASS_$_NSLayoutConstraint
                 U _OBJC_CLASS_$_NSLayoutManager
                 U _OBJC_CLASS_$_NSLocale
                 U _OBJC_CLASS_$_NSLock
                 U _OBJC_CLASS_$_NSMachPort
                 U _OBJC_CLASS_$_NSManagedObject
                 U _OBJC_CLASS_$_NSManagedObjectContext
                 U _OBJC_CLASS_$_NSManagedObjectModel
                 U _OBJC_CLASS_$_NSMapTable
                 U _OBJC_CLASS_$_NSMutableArray
                 U _OBJC_CLASS_$_NSMutableAttributedString
                 U _OBJC_CLASS_$_NSMutableCharacterSet
                 U _OBJC_CLASS_$_NSMutableData
                 U _OBJC_CLASS_$_NSMutableDictionary
                 U _OBJC_CLASS_$_NSMutableIndexSet
                 U _OBJC_CLASS_$_NSMutableOrderedSet
                 U _OBJC_CLASS_$_NSMutableParagraphStyle
                 U _OBJC_CLASS_$_NSMutableSet
                 U _OBJC_CLASS_$_NSMutableString
                 U _OBJC_CLASS_$_NSMutableURLRequest
                 U _OBJC_CLASS_$_NSNetService
                 U _OBJC_CLASS_$_NSNotification
                 U _OBJC_CLASS_$_NSNotificationCenter
                 U _OBJC_CLASS_$_NSNotificationQueue
                 U _OBJC_CLASS_$_NSNull
                 U _OBJC_CLASS_$_NSNumber
                 U _OBJC_CLASS_$_NSNumberFormatter
                 U _OBJC_CLASS_$_NSObject
                 U _OBJC_CLASS_$_NSOperation
                 U _OBJC_CLASS_$_NSOperationQueue
                 U _OBJC_CLASS_$_NSOrderedSet
                 U _OBJC_CLASS_$_NSOutputStream
                 U _OBJC_CLASS_$_NSParagraphStyle
                 U _OBJC_CLASS_$_NSPersistentStoreCoordinator
                 U _OBJC_CLASS_$_NSPointerArray
                 U _OBJC_CLASS_$_NSPredicate
                 U _OBJC_CLASS_$_NSProcessInfo
                 U _OBJC_CLASS_$_NSProgress
                 U _OBJC_CLASS_$_NSPropertyListSerialization
                 U _OBJC_CLASS_$_NSProxy
                 U _OBJC_CLASS_$_NSRecursiveLock
                 U _OBJC_CLASS_$_NSRegularExpression
                 U _OBJC_CLASS_$_NSRunLoop
                 U _OBJC_CLASS_$_NSScanner
                 U _OBJC_CLASS_$_NSSet
                 U _OBJC_CLASS_$_NSSortDescriptor
                 U _OBJC_CLASS_$_NSString
                 U _OBJC_CLASS_$_NSTextAttachment
                 U _OBJC_CLASS_$_NSTextCheckingResult
                 U _OBJC_CLASS_$_NSTextContainer
                 U _OBJC_CLASS_$_NSTextStorage
                 U _OBJC_CLASS_$_NSThread
                 U _OBJC_CLASS_$_NSTimeZone
                 U _OBJC_CLASS_$_NSTimer
                 U _OBJC_CLASS_$_NSURL
                 U _OBJC_CLASS_$_NSURLCache
                 U _OBJC_CLASS_$_NSURLComponents
                 U _OBJC_CLASS_$_NSURLConnection
                 U _OBJC_CLASS_$_NSURLCredential
                 U _OBJC_CLASS_$_NSURLProtocol
                 U _OBJC_CLASS_$_NSURLQueryItem
                 U _OBJC_CLASS_$_NSURLRequest
                 U _OBJC_CLASS_$_NSURLSession
                 U _OBJC_CLASS_$_NSURLSessionConfiguration
                 U _OBJC_CLASS_$_NSURLSessionDataTask
                 U _OBJC_CLASS_$_NSURLSessionDownloadTask
                 U _OBJC_CLASS_$_NSURLSessionTask
                 U _OBJC_CLASS_$_NSURLSessionUploadTask
                 U _OBJC_CLASS_$_NSUUID
                 U _OBJC_CLASS_$_NSUserDefaults
                 U _OBJC_CLASS_$_NSValue
                 U _OBJC_CLASS_$_NSValueTransformer
                 U _OBJC_CLASS_$_NSXMLParser
                 U _OBJC_CLASS_$_PHAsset
                 U _OBJC_CLASS_$_PHImageManager
                 U _OBJC_CLASS_$_PHImageRequestOptions
                 U _OBJC_CLASS_$_QLPreviewController
                 U _OBJC_CLASS_$_SFSafariViewController
                 U _OBJC_CLASS_$_SKMutablePayment
                 U _OBJC_CLASS_$_SKPayment
                 U _OBJC_CLASS_$_SKPaymentQueue
                 U _OBJC_CLASS_$_SKProductsRequest
                 U _OBJC_CLASS_$_SKReceiptRefreshRequest
                 U _OBJC_CLASS_$_SKStoreProductViewController
                 U _OBJC_CLASS_$_SKStoreReviewController
                 U _OBJC_CLASS_$_SLRequest
                 U _OBJC_CLASS_$_UIAccessibilityElement
                 U _OBJC_CLASS_$_UIActionSheet
                 U _OBJC_CLASS_$_UIActivity
                 U _OBJC_CLASS_$_UIActivityIndicatorView
                 U _OBJC_CLASS_$_UIActivityItemProvider
                 U _OBJC_CLASS_$_UIActivityViewController
                 U _OBJC_CLASS_$_UIAlertAction
                 U _OBJC_CLASS_$_UIAlertController
                 U _OBJC_CLASS_$_UIAlertView
                 U _OBJC_CLASS_$_UIApplication
                 U _OBJC_CLASS_$_UIBarButtonItem
                 U _OBJC_CLASS_$_UIBezierPath
                 U _OBJC_CLASS_$_UIButton
                 U _OBJC_CLASS_$_UICollectionView
                 U _OBJC_CLASS_$_UICollectionViewCell
                 U _OBJC_CLASS_$_UICollectionViewFlowLayout
                 U _OBJC_CLASS_$_UIColor
                 U _OBJC_CLASS_$_UIControl
                 U _OBJC_CLASS_$_UIDatePicker
                 U _OBJC_CLASS_$_UIDevice
                 U _OBJC_CLASS_$_UIDocumentInteractionController
                 U _OBJC_CLASS_$_UIFont
                 U _OBJC_CLASS_$_UIFontDescriptor
                 U _OBJC_CLASS_$_UIGestureRecognizer
                 U _OBJC_CLASS_$_UIImage
                 U _OBJC_CLASS_$_UIImagePickerController
                 U _OBJC_CLASS_$_UIImageView
                 U _OBJC_CLASS_$_UILabel
                 U _OBJC_CLASS_$_UILocalNotification
                 U _OBJC_CLASS_$_UILongPressGestureRecognizer
                 U _OBJC_CLASS_$_UIMutableUserNotificationAction
                 U _OBJC_CLASS_$_UIMutableUserNotificationCategory
                 U _OBJC_CLASS_$_UINavigationBar
                 U _OBJC_CLASS_$_UINavigationController
                 U _OBJC_CLASS_$_UINavigationItem
                 U _OBJC_CLASS_$_UINib
                 U _OBJC_CLASS_$_UIPageViewController
                 U _OBJC_CLASS_$_UIPanGestureRecognizer
                 U _OBJC_CLASS_$_UIPasteboard
                 U _OBJC_CLASS_$_UIPickerView
                 U _OBJC_CLASS_$_UIPopoverController
                 U _OBJC_CLASS_$_UIPresentationController
                 U _OBJC_CLASS_$_UIProgressView
                 U _OBJC_CLASS_$_UIRefreshControl
                 U _OBJC_CLASS_$_UIResponder
                 U _OBJC_CLASS_$_UIScreen
                 U _OBJC_CLASS_$_UIScrollView
                 U _OBJC_CLASS_$_UISearchController
                 U _OBJC_CLASS_$_UISlider
                 U _OBJC_CLASS_$_UISplitViewController
                 U _OBJC_CLASS_$_UIStoryboard
                 U _OBJC_CLASS_$_UISwitch
                 U _OBJC_CLASS_$_UITabBarController
                 U _OBJC_CLASS_$_UITableView
                 U _OBJC_CLASS_$_UITableViewCell
                 U _OBJC_CLASS_$_UITableViewController
                 U _OBJC_CLASS_$_UITapGestureRecognizer
                 U _OBJC_CLASS_$_UITextField
                 U _OBJC_CLASS_$_UITextPosition
                 U _OBJC_CLASS_$_UITextRange
                 U _OBJC_CLASS_$_UITextView
                 U _OBJC_CLASS_$_UIToolbar
                 U _OBJC_CLASS_$_UITraitCollection
                 U _OBJC_CLASS_$_UIUserNotificationSettings
                 U _OBJC_CLASS_$_UIView
                 U _OBJC_CLASS_$_UIViewController
                 U _OBJC_CLASS_$_UIWebView
                 U _OBJC_CLASS_$_UIWindow
                 U _OBJC_CLASS_$_UNMutableNotificationContent
                 U _OBJC_CLASS_$_UNNotificationAction
                 U _OBJC_CLASS_$_UNNotificationCategory
                 U _OBJC_CLASS_$_UNNotificationRequest
                 U _OBJC_CLASS_$_UNTimeIntervalNotificationTrigger
                 U _OBJC_CLASS_$_UNUserNotificationCenter
                 U _OBJC_CLASS_$_WKUserContentController
                 U _OBJC_CLASS_$_WKUserScript
                 U _OBJC_CLASS_$_WKWebView
                 U _OBJC_CLASS_$_WKWebViewConfiguration
                 U _OBJC_CLASS_$_WKWebsiteDataStore
                 U _OBJC_EHTYPE_$_NSException
                 U _OBJC_EHTYPE_id
                 U _OBJC_METACLASS_$_CALayer
                 U _OBJC_METACLASS_$_NSBlockOperation
                 U _OBJC_METACLASS_$_NSBundle
                 U _OBJC_METACLASS_$_NSDictionary
                 U _OBJC_METACLASS_$_NSError
                 U _OBJC_METACLASS_$_NSInputStream
                 U _OBJC_METACLASS_$_NSManagedObject
                 U _OBJC_METACLASS_$_NSMutableArray
                 U _OBJC_METACLASS_$_NSMutableDictionary
                 U _OBJC_METACLASS_$_NSObject
                 U _OBJC_METACLASS_$_NSOperation
                 U _OBJC_METACLASS_$_NSOperationQueue
                 U _OBJC_METACLASS_$_NSProxy
                 U _OBJC_METACLASS_$_NSTextStorage
                 U _OBJC_METACLASS_$_NSThread
                 U _OBJC_METACLASS_$_NSURLProtocol
                 U _OBJC_METACLASS_$_NSURLSessionDownloadTask
                 U _OBJC_METACLASS_$_NSValueTransformer
                 U _OBJC_METACLASS_$_SKProductsRequest
                 U _OBJC_METACLASS_$_SKStoreProductViewController
                 U _OBJC_METACLASS_$_UIActivity
                 U _OBJC_METACLASS_$_UIActivityItemProvider
                 U _OBJC_METACLASS_$_UIAlertController
                 U _OBJC_METACLASS_$_UIBarButtonItem
                 U _OBJC_METACLASS_$_UIButton
                 U _OBJC_METACLASS_$_UICollectionViewCell
                 U _OBJC_METACLASS_$_UIControl
                 U _OBJC_METACLASS_$_UIGestureRecognizer
                 U _OBJC_METACLASS_$_UIImageView
                 U _OBJC_METACLASS_$_UILabel
                 U _OBJC_METACLASS_$_UINavigationController
                 U _OBJC_METACLASS_$_UIPageViewController
                 U _OBJC_METACLASS_$_UIPopoverController
                 U _OBJC_METACLASS_$_UIPresentationController
                 U _OBJC_METACLASS_$_UIResponder
                 U _OBJC_METACLASS_$_UIScrollView
                 U _OBJC_METACLASS_$_UISlider
                 U _OBJC_METACLASS_$_UITableView
                 U _OBJC_METACLASS_$_UITableViewCell
                 U _OBJC_METACLASS_$_UITableViewController
                 U _OBJC_METACLASS_$_UITextField
                 U _OBJC_METACLASS_$_UITextPosition
                 U _OBJC_METACLASS_$_UITextRange
                 U _OBJC_METACLASS_$_UITextView
                 U _OBJC_METACLASS_$_UIView
                 U _OBJC_METACLASS_$_UIViewController
                 U _OBJC_METACLASS_$_UIWebView
                 U _OBJC_METACLASS_$_UIWindow
                 U _OSAtomicAdd32
                 U _OSAtomicAdd32Barrier
                 U _OSAtomicAdd64
                 U _OSAtomicCompareAndSwap32
                 U _OSAtomicCompareAndSwap32Barrier
                 U _OSAtomicCompareAndSwap64Barrier
                 U _OSAtomicCompareAndSwapInt
                 U _OSAtomicCompareAndSwapPtrBarrier
                 U _OSAtomicDecrement32
                 U _OSAtomicDecrement32Barrier
                 U _OSAtomicDequeue
                 U _OSAtomicEnqueue
                 U _OSAtomicIncrement32
                 U _OSAtomicIncrement32Barrier
                 U _OSAtomicTestAndClearBarrier
                 U _OSAtomicTestAndSetBarrier
                 U _OSMemoryBarrier
                 U _OSSpinLockLock
                 U _OSSpinLockUnlock
                 U _PHImageErrorKey
                 U _SCNetworkReachabilityCreateWithAddress
                 U _SCNetworkReachabilityCreateWithName
                 U _SCNetworkReachabilityGetFlags
                 U _SCNetworkReachabilityScheduleWithRunLoop
                 U _SCNetworkReachabilitySetCallback
                 U _SCNetworkReachabilitySetDispatchQueue
                 U _SCNetworkReachabilityUnscheduleFromRunLoop
                 U _SKStoreProductParameterITunesItemIdentifier
                 U _SLServiceTypeTwitter
                 U _SSLClose
                 U _SSLCopyPeerTrust
                 U _SSLCreateContext
                 U _SSLGetBufferedReadSize
                 U _SSLGetNegotiatedCipher
                 U _SSLGetNegotiatedProtocolVersion
                 U _SSLGetNumberSupportedCiphers
                 U _SSLGetSessionState
                 U _SSLGetSupportedCiphers
                 U _SSLHandshake
                 U _SSLRead
                 U _SSLSetCertificate
                 U _SSLSetConnection
                 U _SSLSetEnabledCiphers
                 U _SSLSetIOFuncs
                 U _SSLSetPeerDomainName
                 U _SSLSetPeerID
                 U _SSLSetProtocolVersionMax
                 U _SSLSetProtocolVersionMin
                 U _SSLSetSessionOption
                 U _SSLWrite
                 U _SecAccessControlCreateWithFlags
                 U _SecAddSharedWebCredential
                 U _SecCertificateCopyData
                 U _SecCertificateCopySubjectSummary
                 U _SecCertificateCreateWithData
                 U _SecCreateSharedWebCredentialPassword
                 U _SecIdentityCopyCertificate
                 U _SecItemAdd
                 U _SecItemCopyMatching
                 U _SecItemDelete
                 U _SecItemUpdate
                 U _SecKeyCreateEncryptedData
                 U _SecKeyDecrypt
                 U _SecKeyEncrypt
                 U _SecKeyGeneratePair
                 U _SecKeyGetBlockSize
                 U _SecKeyRawVerify
                 U _SecPKCS12Import
                 U _SecPolicyCreateBasicX509
                 U _SecPolicyCreateSSL
                 U _SecRandomCopyBytes
                 U _SecRequestSharedWebCredential
                 U _SecTrustCopyPolicies
                 U _SecTrustCopyPublicKey
                 U _SecTrustCreateWithCertificates
                 U _SecTrustEvaluate
                 U _SecTrustGetCertificateAtIndex
                 U _SecTrustGetCertificateCount
                 U _SecTrustGetTrustResult
                 U _SecTrustGetVerifyTime
                 U _SecTrustSetAnchorCertificates
                 U _SecTrustSetAnchorCertificatesOnly
                 U _SecTrustSetPolicies
                 U _SecTrustSetVerifyDate
                 U _UIAccessibilityIsVoiceOverRunning
                 U _UIAccessibilityTraitButton
                 U _UIAccessibilityTraitImage
                 U _UIAccessibilityTraitLink
                 U _UIAccessibilityTraitStaticText
                 U _UIApplicationDidBecomeActiveNotification
                 U _UIApplicationDidChangeStatusBarFrameNotification
                 U _UIApplicationDidChangeStatusBarOrientationNotification
                 U _UIApplicationDidEnterBackgroundNotification
                 U _UIApplicationDidFinishLaunchingNotification
                 U _UIApplicationDidReceiveMemoryWarningNotification
                 U _UIApplicationLaunchOptionsAnnotationKey
                 U _UIApplicationLaunchOptionsLocalNotificationKey
                 U _UIApplicationLaunchOptionsRemoteNotificationKey
                 U _UIApplicationLaunchOptionsSourceApplicationKey
                 U _UIApplicationLaunchOptionsURLKey
                 U _UIApplicationMain
                 U _UIApplicationOpenURLOptionUniversalLinksOnly
                 U _UIApplicationOpenURLOptionsAnnotationKey
                 U _UIApplicationOpenURLOptionsSourceApplicationKey
                 U _UIApplicationStatusBarFrameUserInfoKey
                 U _UIApplicationWillChangeStatusBarFrameNotification
                 U _UIApplicationWillChangeStatusBarOrientationNotification
                 U _UIApplicationWillEnterForegroundNotification
                 U _UIApplicationWillResignActiveNotification
                 U _UIApplicationWillTerminateNotification
                 U _UIBackgroundTaskInvalid
                 U _UIDeviceBatteryLevelDidChangeNotification
                 U _UIDeviceBatteryStateDidChangeNotification
                 U _UIDeviceOrientationDidChangeNotification
                 U _UIEdgeInsetsZero
                 U _UIFontTextStyleBody
                 U _UIFontTextStyleCallout
                 U _UIFontTextStyleCaption1
                 U _UIFontTextStyleCaption2
                 U _UIFontTextStyleHeadline
                 U _UIFontTextStyleSubheadline
                 U _UIFontTextStyleTitle3
                 U _UIGraphicsBeginImageContext
                 U _UIGraphicsBeginImageContextWithOptions
                 U _UIGraphicsEndImageContext
                 U _UIGraphicsGetCurrentContext
                 U _UIGraphicsGetImageFromCurrentImageContext
                 U _UIGraphicsPopContext
                 U _UIGraphicsPushContext
                 U _UIImageJPEGRepresentation
                 U _UIImagePNGRepresentation
                 U _UIImagePickerControllerImageURL
                 U _UIImagePickerControllerOriginalImage
                 U _UIImagePickerControllerPHAsset
                 U _UIImagePickerControllerReferenceURL
                 U _UIImageWriteToSavedPhotosAlbum
                 U _UIKeyboardAnimationCurveUserInfoKey
                 U _UIKeyboardAnimationDurationUserInfoKey
                 U _UIKeyboardDidChangeFrameNotification
                 U _UIKeyboardDidHideNotification
                 U _UIKeyboardDidShowNotification
                 U _UIKeyboardFrameBeginUserInfoKey
                 U _UIKeyboardFrameEndUserInfoKey
                 U _UIKeyboardWillChangeFrameNotification
                 U _UIKeyboardWillHideNotification
                 U _UIKeyboardWillShowNotification
                 U _UILayoutFittingCompressedSize
                 U _UILocalNotificationDefaultSoundName
                 U _UIPageViewControllerOptionInterPageSpacingKey
                 U _UIPasteboardNameFind
                 U _UIPasteboardNameGeneral
                 U _UIScrollViewDecelerationRateFast
                 U _UITableViewAutomaticDimension
                 U _UITextFieldTextDidEndEditingNotification
                 U _UITextViewTextDidChangeNotification
                 U _UITransitionContextFromViewControllerKey
                 U _UITransitionContextToViewControllerKey
                 U _UIViewNoIntrinsicMetric
                 U _UIWindowDidBecomeHiddenNotification
                 U _UIWindowDidBecomeKeyNotification
                 U _UIWindowDidBecomeVisibleNotification
                 U _UIWindowDidResignKeyNotification
                 U _UIWindowLevelNormal
                 U _UIWindowLevelStatusBar
                 U _UNNotificationDefaultActionIdentifier
                 U _UTTypeConformsTo
                 U _UTTypeCopyPreferredTagWithClass
                 U _UTTypeCreatePreferredIdentifierForTag
                 U _UTTypeEqual
                 U _WKWebsiteDataTypeDiskCache
                 U __Block_copy
                 U __Block_object_assign
                 U __Block_object_dispose
                 U __Block_release
                 U __DefaultRuneLocale
                 U __Exit
                 U __FE_DFL_ENV
                 U __NSConcreteGlobalBlock
                 U __NSConcreteStackBlock
                 U __NSDictionaryOfVariableBindings
                 U __NSGetExecutablePath
                 U __Unwind_Resume
0000000100447548 T __Z10TLIST_INITP9TLISTNODE
000000010043a1b4 T __Z10TLIST_MOVEP9TLISTNODES0_
000000010021433c T __Z11ResetBufferP16tagTGCPApiHandle
0000000100213ff0 T __Z12IsV1AuthType11tagAuthType
00000001003dac00 T __Z14SetLastErrorDLj
00000001004514cc T __Z14TLIST_IS_EMPTYP9TLISTNODE
000000010041baa0 T __Z14throwExceptionI9ExceptionEvRKNSt3__112basic_stringIcNS1_11char_traitsIcEENS1_9allocatorIcEEEES9_i
000000010041bce8 T __Z14throwExceptionI9ExceptionEvRKNSt3__112basic_stringIcNS1_11char_traitsIcEENS1_9allocatorIcEEEEi
0000000100417640 T __Z14toLowerInPlaceINSt3__112basic_stringIcNS0_11char_traitsIcEENS0_9allocatorIcEEEEERT_S8_
00000001003fe144 T __Z15cu_iter_advanceIP13PRIORITYELMNTEvR7cu_iterIT_Ej
00000001003fe0f0 T __Z16cu_iter_distanceIP13PRIORITYELMNTEj7cu_iterIT_ES4_
0000000100447570 T __Z17TLIST_INSERT_NEXTP9TLISTNODES0_
0000000100452f54 T __Z17TLIST_INSERT_PREVP9TLISTNODES0_
00000001010bc6d4 T __Z18GetProjectionPlanePKN5physx14PxParticleBaseE
00000001010bc6c4 T __Z18SetProjectionPlanePN5physx14PxParticleBaseENS_15PxMetaDataPlaneE
00000001010b93b8 T __Z18getPxActorUserDataPKN5physx7PxActorE
00000001011d9528 T __Z18getPxJointUserDataPKN5physx7PxJointE
00000001010ba840 T __Z18getPxShapeUserDataPKN5physx7PxShapeE
00000001011db3a8 T __Z18getPxSpringDampingPKN5physx8PxSpringE
00000001010b93b0 T __Z18setPxActorUserDataPN5physx7PxActorEPv
00000001011d9520 T __Z18setPxJointUserDataPN5physx7PxJointEPv
00000001010ba838 T __Z18setPxShapeUserDataPN5physx7PxShapeEPv
00000001011db3a0 T __Z18setPxSpringDampingPN5physx8PxSpringEf
00000001003fd7f8 T __Z19cu_iter_lower_boundIP13PRIORITYELMNTE7cu_iterIT_ES4_S4_RKS3_Pv
00000001010bbd90 T __Z19getPxMeshScaleScalePKN5physx11PxMeshScaleE
00000001010bbd74 T __Z19setPxMeshScaleScalePN5physx11PxMeshScaleENS_6PxVec3E
00000001011db398 T __Z20getPxSpringStiffnessPKN5physx8PxSpringE
00000001011db390 T __Z20setPxSpringStiffnessPN5physx8PxSpringEf
00000001010b917c T __Z21getPxMaterialUserDataPKN5physx10PxMaterialE
00000001010b9174 T __Z21setPxMaterialUserDataPN5physx10PxMaterialEPv
00000001011db3cc T __Z22getPxD6JointDriveFlagsPKN5physx14PxD6JointDriveE
00000001010bbdc0 T __Z22getPxMeshScaleRotationPKN5physx11PxMeshScaleE
00000001011db3c0 T __Z22setPxD6JointDriveFlagsPN5physx14PxD6JointDriveENS_7PxFlagsINS_18PxD6JointDriveFlag4EnumEjEE
00000001010bbdac T __Z22setPxMeshScaleRotationPN5physx11PxMeshScaleENS_6PxQuatE
000000010021852c T __Z22tgcpapi_popup_next_pkgP16tagTGCPApiHandle
0000000100214398 T __Z23tgcpapi_ready_for_relayP16tagTGCPApiHandle
0000000100215a6c T __Z24tgcpapi_build_frame_baseP16tagTGCPApiHandlePN3gcp8TGCPHeadEt
00000001010ba3fc T __Z25getPxArticulationUserDataPKN5physx14PxArticulationE
00000001010bc2f0 T __Z25getPxHeightFieldDescFlagsPKN5physx17PxHeightFieldDescE
00000001011db25c T __Z25getPxJointLimitConeYAnglePKN5physx16PxJointLimitConeE
00000001011db26c T __Z25getPxJointLimitConeZAnglePKN5physx16PxJointLimitConeE
00000001010bbf68 T __Z25getPxSphereGeometryRadiusPKN5physx16PxSphereGeometryE
000000010165fa84 T __Z25getPxVehicleTireDataMTypePKN5physx17PxVehicleTireDataE
000000010165f538 T __Z25getPxVehicleWheelDataMMOIPKN5physx18PxVehicleWheelDataE
00000001010ba3f4 T __Z25setPxArticulationUserDataPN5physx14PxArticulationEPv
00000001010bc2e4 T __Z25setPxHeightFieldDescFlagsPN5physx17PxHeightFieldDescENS_7PxFlagsINS_17PxHeightFieldFlag4EnumEtEE
00000001011db254 T __Z25setPxJointLimitConeYAnglePN5physx16PxJointLimitConeEf
00000001011db264 T __Z25setPxJointLimitConeZAnglePN5physx16PxJointLimitConeEf
00000001010bbf60 T __Z25setPxSphereGeometryRadiusPN5physx16PxSphereGeometryEf
000000010165fa7c T __Z25setPxVehicleTireDataMTypePN5physx17PxVehicleTireDataEj
000000010165f530 T __Z25setPxVehicleWheelDataMMOIPN5physx18PxVehicleWheelDataEf
0000000100dcf590 T __Z25vorbis_book_decodev_add_tI15ExpandRecursiveI10MonoPolicyLi1EE8LeafByteEvP8codebookPPiiP14oggpack_bufferi
0000000100dcffd8 T __Z25vorbis_book_decodev_add_tI15ExpandRecursiveI10MonoPolicyLi1EE8LeafWordEvP8codebookPPiiP14oggpack_bufferi
0000000100dd0a44 T __Z25vorbis_book_decodev_add_tI15ExpandRecursiveI10MonoPolicyLi2EE8LeafByteEvP8codebookPPiiP14oggpack_bufferi
0000000100dd11b0 T __Z25vorbis_book_decodev_add_tI15ExpandRecursiveI10MonoPolicyLi2EE8LeafWordEvP8codebookPPiiP14oggpack_bufferi
0000000100dd0b68 T __Z25vorbis_book_decodev_add_tI15ExpandRecursiveI10MonoPolicyLi4EE8LeafByteEvP8codebookPPiiP14oggpack_bufferi
0000000100dd12d8 T __Z25vorbis_book_decodev_add_tI15ExpandRecursiveI10MonoPolicyLi4EE8LeafWordEvP8codebookPPiiP14oggpack_bufferi
0000000100dd0cbc T __Z25vorbis_book_decodev_add_tI15ExpandRecursiveI10MonoPolicyLi8EE8LeafByteEvP8codebookPPiiP14oggpack_bufferi
0000000100dd1430 T __Z25vorbis_book_decodev_add_tI15ExpandRecursiveI10MonoPolicyLi8EE8LeafWordEvP8codebookPPiiP14oggpack_bufferi
0000000100dcfb80 T __Z25vorbis_book_decodev_add_tI15ExpandRecursiveI12StereoPolicyLi2EE8LeafByteEvP8codebookPPiiP14oggpack_bufferi
0000000100dd05dc T __Z25vorbis_book_decodev_add_tI15ExpandRecursiveI12StereoPolicyLi2EE8LeafWordEvP8codebookPPiiP14oggpack_bufferi
0000000100dd0e68 T __Z25vorbis_book_decodev_add_tI15ExpandRecursiveI12StereoPolicyLi4EE8LeafByteEvP8codebookPPiiP14oggpack_bufferi
0000000100dd15e0 T __Z25vorbis_book_decodev_add_tI15ExpandRecursiveI12StereoPolicyLi4EE8LeafWordEvP8codebookPPiiP14oggpack_bufferi
0000000100dd0fdc T __Z25vorbis_book_decodev_add_tI15ExpandRecursiveI12StereoPolicyLi8EE8LeafByteEvP8codebookPPiiP14oggpack_bufferi
0000000100dd1758 T __Z25vorbis_book_decodev_add_tI15ExpandRecursiveI12StereoPolicyLi8EE8LeafWordEvP8codebookPPiiP14oggpack_bufferi
0000000100dcfa50 T __Z25vorbis_book_decodev_add_tI18ExpandEntry1Stereo8LeafByteEvP8codebookPPiiP14oggpack_bufferi
0000000100dd04a8 T __Z25vorbis_book_decodev_add_tI18ExpandEntry1Stereo8LeafWordEvP8codebookPPiiP14oggpack_bufferi
00000001010bbd08 T __Z26getPxCapsuleGeometryRadiusPKN5physx17PxCapsuleGeometryE
00000001010bc2a8 T __Z26getPxHeightFieldDescFormatPKN5physx17PxHeightFieldDescE
00000001010bc288 T __Z26getPxHeightFieldDescNbRowsPKN5physx17PxHeightFieldDescE
00000001011daee0 T __Z26getPxJointLinearLimitValuePKN5physx18PxJointLinearLimitE
000000010165ed54 T __Z26getPxVehicleEngineDataMMOIPKN5physx19PxVehicleEngineDataE
000000010165f528 T __Z26getPxVehicleWheelDataMMassPKN5physx18PxVehicleWheelDataE
00000001010bbd00 T __Z26setPxCapsuleGeometryRadiusPN5physx17PxCapsuleGeometryEf
00000001010bc2a0 T __Z26setPxHeightFieldDescFormatPN5physx17PxHeightFieldDescENS_19PxHeightFieldFormat4EnumE
00000001010bc280 T __Z26setPxHeightFieldDescNbRowsPN5physx17PxHeightFieldDescEj
00000001011daed8 T __Z26setPxJointLinearLimitValuePN5physx18PxJointLinearLimitEf
000000010165ed4c T __Z26setPxVehicleEngineDataMMOIPN5physx19PxVehicleEngineDataEf
000000010165f520 T __Z26setPxVehicleWheelDataMMassPN5physx18PxVehicleWheelDataEf
00000001010bbcb8 T __Z27getPxBoxGeometryHalfExtentsPKN5physx13PxBoxGeometryE
00000001011db3b8 T __Z27getPxD6JointDriveForceLimitPKN5physx14PxD6JointDriveE
00000001010bc2b8 T __Z27getPxHeightFieldDescSamplesPKN5physx17PxHeightFieldDescE
000000010165f518 T __Z27getPxVehicleWheelDataMWidthPKN5physx18PxVehicleWheelDataE
00000001010bbc9c T __Z27setPxBoxGeometryHalfExtentsPN5physx13PxBoxGeometryENS_6PxVec3E
00000001011db3b0 T __Z27setPxD6JointDriveForceLimitPN5physx14PxD6JointDriveEf
00000001010bc2b0 T __Z27setPxHeightFieldDescSamplesPN5physx17PxHeightFieldDescENS_13PxStridedDataE
000000010165f510 T __Z27setPxVehicleWheelDataMWidthPN5physx18PxVehicleWheelDataEf
00000001010bbe50 T __Z28getPxConvexMeshGeometryScalePKN5physx20PxConvexMeshGeometryE
000000010165f508 T __Z28getPxVehicleWheelDataMRadiusPKN5physx18PxVehicleWheelDataE
00000001010bbe24 T __Z28setPxConvexMeshGeometryScalePN5physx20PxConvexMeshGeometryENS_11PxMeshScaleE
000000010165f500 T __Z28setPxVehicleWheelDataMRadiusPN5physx18PxVehicleWheelDataEf
00000001010bc298 T __Z29getPxHeightFieldDescNbColumnsPKN5physx17PxHeightFieldDescE
00000001010bc2cc T __Z29getPxHeightFieldDescThicknessPKN5physx17PxHeightFieldDescE
00000001010bc290 T __Z29setPxHeightFieldDescNbColumnsPN5physx17PxHeightFieldDescEj
00000001010bc2c4 T __Z29setPxHeightFieldDescThicknessPN5physx17PxHeightFieldDescEf
00000001010bbd18 T __Z30getPxCapsuleGeometryHalfHeightPKN5physx17PxCapsuleGeometryE
00000001011daff4 T __Z30getPxJointLinearLimitPairLowerPKN5physx22PxJointLinearLimitPairE
00000001011dafe4 T __Z30getPxJointLinearLimitPairUpperPKN5physx22PxJointLinearLimitPairE
00000001010bbfe8 T __Z30getPxTriangleMeshGeometryScalePKN5physx22PxTriangleMeshGeometryE
00000001016609f8 T __Z30getPxVehicleDriveMDriveDynDataPKN5physx14PxVehicleDriveE
000000010165ef28 T __Z30getPxVehicleGearsDataMNbRatiosPKN5physx18PxVehicleGearsDataE
000000010165fa44 T __Z30getPxVehicleTireDataMLatStiffXPKN5physx17PxVehicleTireDataE
000000010165fa54 T __Z30getPxVehicleTireDataMLatStiffYPKN5physx17PxVehicleTireDataE
000000010165f578 T __Z30getPxVehicleWheelDataMMaxSteerPKN5physx18PxVehicleWheelDataE
000000010165f588 T __Z30getPxVehicleWheelDataMToeAnglePKN5physx18PxVehicleWheelDataE
00000001010bbd10 T __Z30setPxCapsuleGeometryHalfHeightPN5physx17PxCapsuleGeometryEf
00000001011dafec T __Z30setPxJointLinearLimitPairLowerPN5physx22PxJointLinearLimitPairEf
00000001011dafdc T __Z30setPxJointLinearLimitPairUpperPN5physx22PxJointLinearLimitPairEf
00000001010bbfbc T __Z30setPxTriangleMeshGeometryScalePN5physx22PxTriangleMeshGeometryENS_11PxMeshScaleE
00000001016609ec T __Z30setPxVehicleDriveMDriveDynDataPN5physx14PxVehicleDriveENS_21PxVehicleDriveDynDataE
000000010165ef20 T __Z30setPxVehicleGearsDataMNbRatiosPN5physx18PxVehicleGearsDataEj
000000010165fa3c T __Z30setPxVehicleTireDataMLatStiffXPN5physx17PxVehicleTireDataEf
000000010165fa4c T __Z30setPxVehicleTireDataMLatStiffYPN5physx17PxVehicleTireDataEf
000000010165f570 T __Z30setPxVehicleWheelDataMMaxSteerPN5physx18PxVehicleWheelDataEf
000000010165f580 T __Z30setPxVehicleWheelDataMToeAnglePN5physx18PxVehicleWheelDataEf
0000000100dcf6a0 T __Z30vorbis_book_decodev_add_SIMD_2I8LeafByteEvP8codebookPPiiP14oggpack_bufferi
0000000100dd00ec T __Z30vorbis_book_decodev_add_SIMD_2I8LeafWordEvP8codebookPPiiP14oggpack_bufferi
0000000100dcf838 T __Z30vorbis_book_decodev_add_SIMD_4I8LeafByteEvP8codebookPPiiP14oggpack_bufferi
0000000100dd028c T __Z30vorbis_book_decodev_add_SIMD_4I8LeafWordEvP8codebookPPiiP14oggpack_bufferi
0000000100dcf96c T __Z30vorbis_book_decodev_add_SIMD_8I8LeafByteEvP8codebookPPiiP14oggpack_bufferi
0000000100dd03c4 T __Z30vorbis_book_decodev_add_SIMD_8I8LeafWordEvP8codebookPPiiP14oggpack_bufferi
00000001010bc520 T __Z31getPxClothTetherConfigStiffnessPKN5physx19PxClothTetherConfigE
00000001011db130 T __Z31getPxJointAngularLimitPairLowerPKN5physx23PxJointAngularLimitPairE
00000001011db120 T __Z31getPxJointAngularLimitPairUpperPKN5physx23PxJointAngularLimitPairE
000000010165f344 T __Z31getPxVehicleClutchDataMStrengthPKN5physx19PxVehicleClutchDataE
000000010165ed74 T __Z31getPxVehicleEngineDataMMaxOmegaPKN5physx19PxVehicleEngineDataE
00000001010bc518 T __Z31setPxClothTetherConfigStiffnessPN5physx19PxClothTetherConfigEf
00000001011db128 T __Z31setPxJointAngularLimitPairLowerPN5physx23PxJointAngularLimitPairEf
00000001011db118 T __Z31setPxJointAngularLimitPairUpperPN5physx23PxJointAngularLimitPairEf
000000010165f33c T __Z31setPxVehicleClutchDataMStrengthPN5physx19PxVehicleClutchDataEf
000000010165ed6c T __Z31setPxVehicleEngineDataMMaxOmegaPN5physx19PxVehicleEngineDataEf
00000001010bc43c T __Z32getPxClothStretchConfigStiffnessPKN5physx20PxClothStretchConfigE
00000001010bbe94 T __Z32getPxConvexMeshGeometryMeshFlagsPKN5physx20PxConvexMeshGeometryE
00000001010bc0dc T __Z32getPxHeightFieldGeometryRowScalePKN5physx21PxHeightFieldGeometryE
00000001011daec0 T __Z32getPxJointLimitParametersDampingPKN5physx22PxJointLimitParametersE
0000000101660a98 T __Z32getPxVehicleDrive4WMDriveSimDataPKN5physx16PxVehicleDrive4WE
0000000101660fc0 T __Z32getPxVehicleDriveNWMDriveSimDataPKN5physx16PxVehicleDriveNWE
000000010165ef18 T __Z32getPxVehicleGearsDataMFinalRatioPKN5physx18PxVehicleGearsDataE
000000010165ef38 T __Z32getPxVehicleGearsDataMSwitchTimePKN5physx18PxVehicleGearsDataE
0000000101660368 T __Z32getPxVehicleWheelsMWheelsDynDataPKN5physx15PxVehicleWheelsE
0000000101660334 T __Z32getPxVehicleWheelsMWheelsSimDataPKN5physx15PxVehicleWheelsE
00000001010bc434 T __Z32setPxClothStretchConfigStiffnessPN5physx20PxClothStretchConfigEf
00000001010bbe88 T __Z32setPxConvexMeshGeometryMeshFlagsPN5physx20PxConvexMeshGeometryENS_7PxFlagsINS_24PxConvexMeshGeometryFlag4EnumEhEE
00000001010bc0d4 T __Z32setPxHeightFieldGeometryRowScalePN5physx21PxHeightFieldGeometryEf
00000001011daeb8 T __Z32setPxJointLimitParametersDampingPN5physx22PxJointLimitParametersEf
0000000101660a14 T __Z32setPxVehicleDrive4WMDriveSimDataPN5physx16PxVehicleDrive4WENS_23PxVehicleDriveSimData4WE
0000000101660f54 T __Z32setPxVehicleDriveNWMDriveSimDataPN5physx16PxVehicleDriveNWENS_23PxVehicleDriveSimDataNWE
000000010165ef10 T __Z32setPxVehicleGearsDataMFinalRatioPN5physx18PxVehicleGearsDataEf
000000010165ef30 T __Z32setPxVehicleGearsDataMSwitchTimePN5physx18PxVehicleGearsDataEf
0000000101660344 T __Z32setPxVehicleWheelsMWheelsDynDataPN5physx15PxVehicleWheelsENS_22PxVehicleWheelsDynDataE
000000010166032c T __Z32setPxVehicleWheelsMWheelsSimDataPN5physx15PxVehicleWheelsENS_22PxVehicleWheelsSimDataE
00000001010bbe80 T __Z33getPxConvexMeshGeometryConvexMeshPKN5physx20PxConvexMeshGeometryE
000000010165ed64 T __Z33getPxVehicleEngineDataMPeakTorquePKN5physx19PxVehicleEngineDataE
000000010165f548 T __Z33getPxVehicleWheelDataMDampingRatePKN5physx18PxVehicleWheelDataE
00000001010bbe78 T __Z33setPxConvexMeshGeometryConvexMeshPN5physx20PxConvexMeshGeometryEPNS_12PxConvexMeshE
000000010165ed5c T __Z33setPxVehicleEngineDataMPeakTorquePN5physx19PxVehicleEngineDataEf
000000010165f540 T __Z33setPxVehicleWheelDataMDampingRatePN5physx18PxVehicleWheelDataEf
00000001010bc530 T __Z34getPxClothTetherConfigStretchLimitPKN5physx19PxClothTetherConfigE
00000001011daeb0 T __Z34getPxJointLimitParametersStiffnessPKN5physx22PxJointLimitParametersE
00000001010bc01c T __Z34getPxTriangleMeshGeometryMeshFlagsPKN5physx22PxTriangleMeshGeometryE
000000010165f980 T __Z34getPxVehicleAntiRollBarDataMWheel0PKN5physx24PxVehicleAntiRollBarDataE
000000010165f990 T __Z34getPxVehicleAntiRollBarDataMWheel1PKN5physx24PxVehicleAntiRollBarDataE
0000000101660cbc T __Z34getPxVehicleDriveTankMDriveSimDataPKN5physx18PxVehicleDriveTankE
00000001010bc528 T __Z34setPxClothTetherConfigStretchLimitPN5physx19PxClothTetherConfigEf
00000001011daea8 T __Z34setPxJointLimitParametersStiffnessPN5physx22PxJointLimitParametersEf
00000001010bc010 T __Z34setPxTriangleMeshGeometryMeshFlagsPN5physx22PxTriangleMeshGeometryENS_7PxFlagsINS_18PxMeshGeometryFlag4EnumEhEE
000000010165f978 T __Z34setPxVehicleAntiRollBarDataMWheel0PN5physx24PxVehicleAntiRollBarDataEj
000000010165f988 T __Z34setPxVehicleAntiRollBarDataMWheel1PN5physx24PxVehicleAntiRollBarDataEj
0000000101660c60 T __Z34setPxVehicleDriveTankMDriveSimDataPN5physx18PxVehicleDriveTankENS_21PxVehicleDriveSimDataE
0000000100dcfcbc T __Z34vorbis_book_decodev_add_SIMD_4_2chI8LeafByteEvP8codebookPPiiP14oggpack_bufferi
0000000100dd071c T __Z34vorbis_book_decodev_add_SIMD_4_2chI8LeafWordEvP8codebookPPiiP14oggpack_bufferi
0000000100dcfe78 T __Z34vorbis_book_decodev_add_SIMD_8_2chI8LeafByteEvP8codebookPPiiP14oggpack_bufferi
0000000100dd08e0 T __Z34vorbis_book_decodev_add_SIMD_8_2chI8LeafWordEvP8codebookPPiiP14oggpack_bufferi
00000001010bc46c T __Z35getPxClothStretchConfigStretchLimitPKN5physx20PxClothStretchConfigE
00000001010bc0ec T __Z35getPxHeightFieldGeometryColumnScalePKN5physx21PxHeightFieldGeometryE
00000001010bc0bc T __Z35getPxHeightFieldGeometryHeightFieldPKN5physx21PxHeightFieldGeometryE
00000001010bc0cc T __Z35getPxHeightFieldGeometryHeightScalePKN5physx21PxHeightFieldGeometryE
000000010165f354 T __Z35getPxVehicleClutchDataMAccuracyModePKN5physx19PxVehicleClutchDataE
000000010165f100 T __Z35getPxVehicleDifferential4WDataMTypePKN5physx27PxVehicleDifferential4WDataE
000000010166046c T __Z35getPxVehicleDriveDynDataMTargetGearPKN5physx21PxVehicleDriveDynDataE
000000010165f798 T __Z35getPxVehicleSuspensionDataMMaxDroopPKN5physx23PxVehicleSuspensionDataE
00000001010bc464 T __Z35setPxClothStretchConfigStretchLimitPN5physx20PxClothStretchConfigEf
00000001010bc0e4 T __Z35setPxHeightFieldGeometryColumnScalePN5physx21PxHeightFieldGeometryEf
00000001010bc0b4 T __Z35setPxHeightFieldGeometryHeightFieldPN5physx21PxHeightFieldGeometryEPNS_13PxHeightFieldE
00000001010bc0c4 T __Z35setPxHeightFieldGeometryHeightScalePN5physx21PxHeightFieldGeometryEf
000000010165f34c T __Z35setPxVehicleClutchDataMAccuracyModePN5physx19PxVehicleClutchDataENS_27PxVehicleClutchAccuracyMode4EnumE
000000010165f0f8 T __Z35setPxVehicleDifferential4WDataMTypePN5physx27PxVehicleDifferential4WDataENS0_4EnumE
0000000101660464 T __Z35setPxVehicleDriveDynDataMTargetGearPN5physx21PxVehicleDriveDynDataEj
000000010165f790 T __Z35setPxVehicleSuspensionDataMMaxDroopPN5physx23PxVehicleSuspensionDataEf
00000001010bc5a4 T __Z36getPxClothMotionConstraintConfigBiasPKN5physx29PxClothMotionConstraintConfigE
00000001011dae90 T __Z36getPxJointLimitParametersRestitutionPKN5physx22PxJointLimitParametersE
000000010166045c T __Z36getPxVehicleDriveDynDataMCurrentGearPKN5physx21PxVehicleDriveDynDataE
000000010166047c T __Z36getPxVehicleDriveDynDataMEnginespeedPKN5physx21PxVehicleDriveDynDataE
000000010165f558 T __Z36getPxVehicleWheelDataMMaxBrakeTorquePKN5physx18PxVehicleWheelDataE
00000001010bc59c T __Z36setPxClothMotionConstraintConfigBiasPN5physx29PxClothMotionConstraintConfigEf
00000001011dae88 T __Z36setPxJointLimitParametersRestitutionPN5physx22PxJointLimitParametersEf
0000000101660454 T __Z36setPxVehicleDriveDynDataMCurrentGearPN5physx21PxVehicleDriveDynDataEj
0000000101660474 T __Z36setPxVehicleDriveDynDataMEnginespeedPN5physx21PxVehicleDriveDynDataEf
000000010165f550 T __Z36setPxVehicleWheelDataMMaxBrakeTorquePN5physx18PxVehicleWheelDataEf
00000001010bc594 T __Z37getPxClothMotionConstraintConfigScalePKN5physx29PxClothMotionConstraintConfigE
00000001010bc030 T __Z37getPxTriangleMeshGeometryTriangleMeshPKN5physx22PxTriangleMeshGeometryE
000000010165f9a0 T __Z37getPxVehicleAntiRollBarDataMStiffnessPKN5physx24PxVehicleAntiRollBarDataE
000000010166042c T __Z37getPxVehicleDriveDynDataMUseAutoGearsPKN5physx21PxVehicleDriveDynDataE
000000010165f7a8 T __Z37getPxVehicleSuspensionDataMSprungMassPKN5physx23PxVehicleSuspensionDataE
00000001010bc58c T __Z37setPxClothMotionConstraintConfigScalePN5physx29PxClothMotionConstraintConfigEf
00000001010bc028 T __Z37setPxTriangleMeshGeometryTriangleMeshPN5physx22PxTriangleMeshGeometryEPNS_14PxTriangleMeshE
000000010165f998 T __Z37setPxVehicleAntiRollBarDataMStiffnessPN5physx24PxVehicleAntiRollBarDataEf
0000000101660424 T __Z37setPxVehicleDriveDynDataMUseAutoGearsPN5physx21PxVehicleDriveDynDataEb
000000010165f7a0 T __Z37setPxVehicleSuspensionDataMSprungMassPN5physx23PxVehicleSuspensionDataEf
000000010166043c T __Z38getPxVehicleDriveDynDataMGearUpPressedPKN5physx21PxVehicleDriveDynDataE
0000000101660434 T __Z38setPxVehicleDriveDynDataMGearUpPressedPN5physx21PxVehicleDriveDynDataEb
00000001010bc45c T __Z39getPxClothStretchConfigCompressionLimitPKN5physx20PxClothStretchConfigE
00000001010bc2dc T __Z39getPxHeightFieldDescConvexEdgeThresholdPKN5physx17PxHeightFieldDescE
000000010165f0f0 T __Z39getPxVehicleDifferential4WDataMRearBiasPKN5physx27PxVehicleDifferential4WDataE
000000010166048c T __Z39getPxVehicleDriveDynDataMGearSwitchTimePKN5physx21PxVehicleDriveDynDataE
000000010165f7b8 T __Z39getPxVehicleSuspensionDataMCamberAtRestPKN5physx23PxVehicleSuspensionDataE
00000001010bc454 T __Z39setPxClothStretchConfigCompressionLimitPN5physx20PxClothStretchConfigEf
00000001010bc2d4 T __Z39setPxHeightFieldDescConvexEdgeThresholdPN5physx17PxHeightFieldDescEf
000000010165f0e8 T __Z39setPxVehicleDifferential4WDataMRearBiasPN5physx27PxVehicleDifferential4WDataEf
0000000101660484 T __Z39setPxVehicleDriveDynDataMGearSwitchTimePN5physx21PxVehicleDriveDynDataEf
000000010165f7b0 T __Z39setPxVehicleSuspensionDataMCamberAtRestPN5physx23PxVehicleSuspensionDataEf
00000001010bc100 T __Z40getPxHeightFieldGeometryHeightFieldFlagsPKN5physx21PxHeightFieldGeometryE
00000001011daea0 T __Z40getPxJointLimitParametersBounceThresholdPKN5physx22PxJointLimitParametersE
00000001011daed0 T __Z40getPxJointLimitParametersContactDistancePKN5physx22PxJointLimitParametersE
000000010165f0e0 T __Z40getPxVehicleDifferential4WDataMFrontBiasPKN5physx27PxVehicleDifferential4WDataE
000000010166044c T __Z40getPxVehicleDriveDynDataMGearDownPressedPKN5physx21PxVehicleDriveDynDataE
000000010165f568 T __Z40getPxVehicleWheelDataMMaxHandBrakeTorquePKN5physx18PxVehicleWheelDataE
00000001010bc0f4 T __Z40setPxHeightFieldGeometryHeightFieldFlagsPN5physx21PxHeightFieldGeometryENS_7PxFlagsINS_18PxMeshGeometryFlag4EnumEhEE
00000001011dae98 T __Z40setPxJointLimitParametersBounceThresholdPN5physx22PxJointLimitParametersEf
00000001011daec8 T __Z40setPxJointLimitParametersContactDistancePN5physx22PxJointLimitParametersEf
000000010165f0d8 T __Z40setPxVehicleDifferential4WDataMFrontBiasPN5physx27PxVehicleDifferential4WDataEf
0000000101660444 T __Z40setPxVehicleDriveDynDataMGearDownPressedPN5physx21PxVehicleDriveDynDataEb
000000010165f560 T __Z40setPxVehicleWheelDataMMaxHandBrakeTorquePN5physx18PxVehicleWheelDataEf
00000001010bc5b4 T __Z41getPxClothMotionConstraintConfigStiffnessPKN5physx29PxClothMotionConstraintConfigE
000000010165f364 T __Z41getPxVehicleClutchDataMEstimateIterationsPKN5physx19PxVehicleClutchDataE
000000010165f0d0 T __Z41getPxVehicleDifferential4WDataMCentreBiasPKN5physx27PxVehicleDifferential4WDataE
000000010165f788 T __Z41getPxVehicleSuspensionDataMMaxCompressionPKN5physx23PxVehicleSuspensionDataE
000000010165f768 T __Z41getPxVehicleSuspensionDataMSpringStrengthPKN5physx23PxVehicleSuspensionDataE
00000001010bc5ac T __Z41setPxClothMotionConstraintConfigStiffnessPN5physx29PxClothMotionConstraintConfigEf
000000010165f35c T __Z41setPxVehicleClutchDataMEstimateIterationsPN5physx19PxVehicleClutchDataEj
000000010165f0c8 T __Z41setPxVehicleDifferential4WDataMCentreBiasPN5physx27PxVehicleDifferential4WDataEf
000000010165f780 T __Z41setPxVehicleSuspensionDataMMaxCompressionPN5physx23PxVehicleSuspensionDataEf
000000010165f760 T __Z41setPxVehicleSuspensionDataMSpringStrengthPN5physx23PxVehicleSuspensionDataEf
00000001010bc44c T __Z42getPxClothStretchConfigStiffnessMultiplierPKN5physx20PxClothStretchConfigE
000000010165f260 T __Z42getPxVehicleAckermannGeometryDataMAccuracyPKN5physx30PxVehicleAckermannGeometryDataE
000000010166049c T __Z42getPxVehicleDriveDynDataMAutoBoxSwitchTimePKN5physx21PxVehicleDriveDynDataE
00000001010bc444 T __Z42setPxClothStretchConfigStiffnessMultiplierPN5physx20PxClothStretchConfigEf
000000010165f258 T __Z42setPxVehicleAckermannGeometryDataMAccuracyPN5physx30PxVehicleAckermannGeometryDataEf
0000000101660494 T __Z42setPxVehicleDriveDynDataMAutoBoxSwitchTimePN5physx21PxVehicleDriveDynDataEf
000000010165f280 T __Z43getPxVehicleAckermannGeometryDataMRearWidthPKN5physx30PxVehicleAckermannGeometryDataE
000000010165f7d8 T __Z43getPxVehicleSuspensionDataMCamberAtMaxDroopPKN5physx23PxVehicleSuspensionDataE
000000010165f778 T __Z43getPxVehicleSuspensionDataMSpringDamperRatePKN5physx23PxVehicleSuspensionDataE
000000010165f278 T __Z43setPxVehicleAckermannGeometryDataMRearWidthPN5physx30PxVehicleAckermannGeometryDataEf
000000010165f7d0 T __Z43setPxVehicleSuspensionDataMCamberAtMaxDroopPN5physx23PxVehicleSuspensionDataEf
000000010165f770 T __Z43setPxVehicleSuspensionDataMSpringDamperRatePN5physx23PxVehicleSuspensionDataEf
000000010165f270 T __Z44getPxVehicleAckermannGeometryDataMFrontWidthPKN5physx30PxVehicleAckermannGeometryDataE
000000010165f268 T __Z44setPxVehicleAckermannGeometryDataMFrontWidthPN5physx30PxVehicleAckermannGeometryDataEf
000000010165f0a0 T __Z45getPxVehicleDifferential4WDataMFrontRearSplitPKN5physx27PxVehicleDifferential4WDataE
000000010165f098 T __Z45setPxVehicleDifferential4WDataMFrontRearSplitPN5physx27PxVehicleDifferential4WDataEf
000000010165ed84 T __Z46getPxVehicleEngineDataMDampingRateFullThrottlePKN5physx19PxVehicleEngineDataE
000000010165ed7c T __Z46setPxVehicleEngineDataMDampingRateFullThrottlePN5physx19PxVehicleEngineDataEf
000000010165f290 T __Z48getPxVehicleAckermannGeometryDataMAxleSeparationPKN5physx30PxVehicleAckermannGeometryDataE
000000010165f418 T __Z48getPxVehicleTireLoadFilterDataMMaxNormalisedLoadPKN5physx27PxVehicleTireLoadFilterDataE
000000010165f3f8 T __Z48getPxVehicleTireLoadFilterDataMMinNormalisedLoadPKN5physx27PxVehicleTireLoadFilterDataE
000000010165f288 T __Z48setPxVehicleAckermannGeometryDataMAxleSeparationPN5physx30PxVehicleAckermannGeometryDataEf
000000010165f410 T __Z48setPxVehicleTireLoadFilterDataMMaxNormalisedLoadPN5physx27PxVehicleTireLoadFilterDataEf
000000010165f3f0 T __Z48setPxVehicleTireLoadFilterDataMMinNormalisedLoadPN5physx27PxVehicleTireLoadFilterDataEf
000000010165f0c0 T __Z49getPxVehicleDifferential4WDataMRearLeftRightSplitPKN5physx27PxVehicleDifferential4WDataE
000000010165f7c8 T __Z49getPxVehicleSuspensionDataMCamberAtMaxCompressionPKN5physx23PxVehicleSuspensionDataE
000000010165f0b8 T __Z49setPxVehicleDifferential4WDataMRearLeftRightSplitPN5physx27PxVehicleDifferential4WDataEf
000000010165f7c0 T __Z49setPxVehicleSuspensionDataMCamberAtMaxCompressionPN5physx23PxVehicleSuspensionDataEf
000000010165f0b0 T __Z50getPxVehicleDifferential4WDataMFrontLeftRightSplitPKN5physx27PxVehicleDifferential4WDataE
000000010165fa74 T __Z50getPxVehicleTireDataMCamberStiffnessPerUnitGravityPKN5physx17PxVehicleTireDataE
000000010165f0a8 T __Z50setPxVehicleDifferential4WDataMFrontLeftRightSplitPN5physx27PxVehicleDifferential4WDataEf
000000010165fa6c T __Z50setPxVehicleTireDataMCamberStiffnessPerUnitGravityPN5physx17PxVehicleTireDataEf
000000010165fa64 T __Z56getPxVehicleTireDataMLongitudinalStiffnessPerUnitGravityPKN5physx17PxVehicleTireDataE
000000010165f428 T __Z56getPxVehicleTireLoadFilterDataMMaxFilteredNormalisedLoadPKN5physx27PxVehicleTireLoadFilterDataE
000000010165f408 T __Z56getPxVehicleTireLoadFilterDataMMinFilteredNormalisedLoadPKN5physx27PxVehicleTireLoadFilterDataE
000000010165fa5c T __Z56setPxVehicleTireDataMLongitudinalStiffnessPerUnitGravityPN5physx17PxVehicleTireDataEf
000000010165f420 T __Z56setPxVehicleTireLoadFilterDataMMaxFilteredNormalisedLoadPN5physx27PxVehicleTireLoadFilterDataEf
000000010165f400 T __Z56setPxVehicleTireLoadFilterDataMMinFilteredNormalisedLoadPN5physx27PxVehicleTireLoadFilterDataEf
000000010165ed94 T __Z59getPxVehicleEngineDataMDampingRateZeroThrottleClutchEngagedPKN5physx19PxVehicleEngineDataE
000000010165ed8c T __Z59setPxVehicleEngineDataMDampingRateZeroThrottleClutchEngagedPN5physx19PxVehicleEngineDataEf
000000010165eda4 T __Z62getPxVehicleEngineDataMDampingRateZeroThrottleClutchDisengagedPKN5physx19PxVehicleEngineDataE
000000010165ed9c T __Z62setPxVehicleEngineDataMDampingRateZeroThrottleClutchDisengagedPN5physx19PxVehicleEngineDataEf
0000000100401b24 T __Z7InRangeIiEbT_S0_S0_
00000001000e1450 T __Z7isalnumi
00000001003b210c T __Z7isalphai
00000001001dfc5c T __Z7isasciii
00000001001f9b6c T __Z7isdigiti
00000001001df134 T __Z7isspacei
00000001000d2f98 T __Z7toloweri
0000000100436b7c T __Z7toupperi
00000001001dfbc0 T __Z8__istypeim
00000001001f9b44 T __Z8isxdigiti
000000010043a224 T __Z9TLIST_DELP9TLISTNODE
00000001001f9b94 T __Z9__isctypeim
00000001055219a8 D __ZGV10gSimd4fTwo
0000000105521a20 D __ZGV10gSimd4iOne
0000000105521998 D __ZGV11gSimd4fHalf
00000001055219f0 D __ZGV12gSimd4fMaskX
00000001055219c8 D __ZGV14gSimd4fEpsilon
0000000105521a10 D __ZGV14gSimd4fMaskXYZ
00000001055219d8 D __ZGV15gSimd4fFloatMax
0000000105521988 D __ZGV15gSimd4fMinusOne
00000001055219b8 D __ZGV9gSimd4fPi
00000001053a4090 D __ZGVN26CAkTrackedGameObjComponentILj0EE5sListE
00000001053a33f8 D __ZGVN26CAkTrackedGameObjComponentILj1EE5sListE
00000001053a3480 D __ZGVN26CAkTrackedGameObjComponentILj2EE5sListE
00000001053a4070 D __ZGVN26CAkTrackedGameObjComponentILj3EE5sListE
00000001053a3418 D __ZGVN26CAkTrackedGameObjComponentILj4EE5sListE
00000001053a49c0 D __ZGVN26CAkTrackedGameObjComponentILj5EE5sListE
00000001053a49a0 D __ZGVN26CAkTrackedGameObjComponentILj6EE5sListE
00000001053a4a00 D __ZGVN26CAkTrackedGameObjComponentILj7EE5sListE
00000001053a49e0 D __ZGVN26CAkTrackedGameObjComponentILj8EE5sListE
0000000105521900 D __ZGVN5physx5cloth11SwCollisionI6Simd4fE14sSkeletonWidthE
000000010552cb90 D __ZGVZN12gcloud_voice14CThreadLogFile8InstanceEvE4inst
000000010538b100 D __ZGVZN5ABase5CTime11GetInstanceEvE10s_Instance
000000010551d748 D __ZGVZN9SingletonIN11tss_channel10TssChannelEE11GetInstanceEvE7object_
000000010551d890 D __ZGVZN9SingletonIN11tss_channel11IoctlHelperEE11GetInstanceEvE7object_
0000000105520a90 D __ZGVZN9SingletonIN11tss_channel19CSQualityStatHelperEE11GetInstanceEvE7object_
00000001055209c8 D __ZGVZN9SingletonIN11tss_channel9CSChannelEE11GetInstanceEvE7object_
000000010551c050 D __ZGVZNK5Eigen14QuaternionBaseINS_10QuaternionIfLi2EEEE5slerpIS2_EENS1_IfLi0EEERKfRKNS0_IT_EEE3one
00000001053a4a08 D __ZN10AkDbStringI23AkArrayAllocatorNoAlignI22_ArrayPoolSpatialAudioEc7CAkLockE9pInstanceE
00000001003dcfbc T __ZN10CTaskIDMgr13GetNextTaskIDEv
0000000100318850 T __ZN10TFileEntry11isFileEntryEv
00000001000d326c T __ZN10TLIST_IT_P4NEXTERP9TLISTNODES2_
00000001001528fc T __ZN10apollo_p2p10distribute11report_dataEPKc
0000000100153fa4 T __ZN10apollo_p2p10distribute5clearEv
000000010015ee6c T __ZN10apollo_p2p10distribute6updateEd
000000010015804c T __ZN10apollo_p2p11CMemoryPool4FreeEPv
0000000100157914 T __ZN10apollo_p2p11CMemoryPool4initEyi
0000000100157c58 T __ZN10apollo_p2p11CMemoryPool5AllocEv
0000000100165e24 T __ZN10apollo_p2p11pbuf_headerEPNS_4pbufEs
0000000100152c7c T __ZN10apollo_p2p13lwip_mgr_stat4dumpEv
000000010014eeac T __ZN10apollo_p2p13lwip_mgr_stat5resetEv
0000000100160e8c T __ZN10apollo_p2p14lwip_statistic14dump_statisticEv
000000010015ce3c T __ZN10apollo_p2p14lwip_statistic17set_error_reasionENS_20tcp_close_error_codeE
000000010015dfcc T __ZN10apollo_p2p14lwip_statistic8dump_logEv
0000000100160d48 T __ZN10apollo_p2p16connection_index4hashEv
000000010015a92c T __ZN10apollo_p2p16connection_index6to_strEv
000000010015afe4 T __ZN10apollo_p2p4pbuf10pbuf_allocENS_10pbuf_layerEtNS_9pbuf_typeE
00000001001686cc T __ZN10apollo_p2p5delif11poll_sock_1EiP5cu_cs
00000001001683a0 T __ZN10apollo_p2p5delif12send_to_destEPciN6apollo18tag_inet_addr_infoEPNS_7tcp_pcbE
0000000100168940 T __ZN10apollo_p2p5delif4initENSt3__112basic_stringIcNS1_11char_traitsIcEENS1_9allocatorIcEEEE
000000010016adb4 T __ZN10apollo_p2p5delif9parse_urlENSt3__112basic_stringIcNS1_11char_traitsIcEENS1_9allocatorIcEEEERNS1_6vectorIS7_NS5_IS7_EEEE
0000000100169e1c T __ZN10apollo_p2p5delif9recv_procERN6apollo14cmn_udp_socketE
0000000100153cbc T __ZN10apollo_p2p6AveVar4dumpEv
000000010014ef6c T __ZN10apollo_p2p6AveVar5resetEv
000000010014df88 T __ZN10apollo_p2p6AveVar6updateEd
000000010015c390 T __ZN10apollo_p2p7shtable13get_node_listEv
000000010015c3a8 T __ZN10apollo_p2p7shtable6insertEPNS_7tcp_pcbE
000000010015c478 T __ZN10apollo_p2p7shtable6removeEPNS_7tcp_pcbE
00000001001628c8 T __ZN10apollo_p2p7shtable8find_pcbERNS_16connection_indexE
000000010015e238 T __ZN10apollo_p2p7tcp_pcb12on_send_failEv
0000000100159444 T __ZN10apollo_p2p7tcp_pcb16get_callback_argEv
000000010015b5cc T __ZN10apollo_p2p7tcp_pcb16remove_from_listEv
00000001001646ac T __ZN10apollo_p2p7tcp_pcb18dump_snd_queue_lenEv
000000010015e220 T __ZN10apollo_p2p7tcp_pcb22retransmit_limit_timerEv
00000001001540b0 T __ZN10apollo_p2p7tcp_pcb8send_udpEPci
000000010015d3c0 T __ZN10apollo_p2p7tcp_seg11get_end_seqEv
0000000100166444 T __ZN10apollo_p2p7tcp_seg15set_rtt_timeoutEi
000000010015de40 T __ZN10apollo_p2p7tcp_seg17do_not_retransmitEv
0000000100165644 T __ZN10apollo_p2p7tcp_seg18do_fast_retransmitEv
000000010015d204 T __ZN10apollo_p2p7tcp_seg7get_seqEv
000000010014a09c T __ZN10apollo_p2p8get_lwipEv
000000010014fbd0 T __ZN10apollo_p2p8lwip_mgr11dump_configEv
000000010014df60 T __ZN10apollo_p2p8lwip_mgr11get_tick_msEv
0000000100150050 T __ZN10apollo_p2p8lwip_mgr11update_statEv
0000000100159ffc T __ZN10apollo_p2p8lwip_mgr12get_pcb_listEi
000000010015a080 T __ZN10apollo_p2p8lwip_mgr15insert_bond_pcbEPNS_7tcp_pcbE
000000010015a354 T __ZN10apollo_p2p8lwip_mgr15remove_bond_pcbEPNS_7tcp_pcbE
0000000100151fc0 T __ZN10apollo_p2p8lwip_mgr15send_udp_reportENSt3__112basic_stringIcNS1_11char_traitsIcEENS1_9allocatorIcEEEE
0000000100158d78 T __ZN10apollo_p2p8lwip_mgr18classify_diff_timeEj
0000000100159b8c T __ZN10apollo_p2p8lwip_mgr18get_pcb_list_countEv
0000000100158df8 T __ZN10apollo_p2p8lwip_mgr19classify_send_timesEj
0000000100151bb8 T __ZN10apollo_p2p8lwip_mgr22reap_segstat_perperiodEv
0000000100153ec0 T __ZN10apollo_p2p8lwip_mgr23clear_segstat_perperoidEv
000000010014a130 T __ZN10apollo_p2p8lwip_mgr4initEv
000000010014a29c T __ZN10apollo_p2p8lwip_mgr7do_statEv
0000000100151b08 T __ZN10apollo_p2p8lwip_mgr9done_statEv
000000010014a314 T __ZN10apollo_p2p8lwip_mgr9get_delifEv
000000010016930c T __ZN10apollo_p2p8zsd_util10is_enabledEv
0000000100169328 T __ZN10apollo_p2p8zsd_util10zsd_headerEPc
0000000100154c0c T __ZN10apollo_p2p8zsd_util4initEPKcRN6apollo18tag_inet_addr_infoE
0000000100155c10 T __ZN10apollo_p2p8zsd_util8HexToBinERKNSt3__112basic_stringIcNS1_11char_traitsIcEENS1_9allocatorIcEEEE
000000010044cc7c T __ZN10char_stack3popEv
000000010044cb78 T __ZN10char_stack4pushEPKc
000000010044cc34 T __ZN10char_stack5emptyEv
00000001000dd9e0 T __ZN10cu_log_imp13set_log_debugEb
00000001000dda04 T __ZN10cu_log_imp13set_log_errorEb
000000010037e210 T __ZN10cu_log_imp14close_log_fileEv
000000010028e7a0 T __ZN10cu_log_imp14delete_old_logENSt3__112basic_stringIcNS0_11char_traitsIcEENS0_9allocatorIcEEEES6_
000000010028e324 T __ZN10cu_log_imp16set_log_savepathENSt3__112basic_stringIcNS0_11char_traitsIcEENS0_9allocatorIcEEEE
00000001000dd9c0 T __ZN10cu_log_imp8set_intfEP11cu_log_intf
0000000100474eb8 T __ZN10zip_reader11load_stringERNSt3__112basic_stringIcNS0_11char_traitsIcEENS0_9allocatorIcEEEEyj
0000000100474dcc T __ZN10zip_reader12load_zip_endEj
0000000100474b58 T __ZN10zip_reader12seek_dir_endERj
00000001004748a0 T __ZN10zip_reader13read_entry_atEjPNS_14zip_file_entryE
0000000100474ad8 T __ZN10zip_reader14zip_file_entry15get_next_offsetEv
0000000100474ac0 T __ZN10zip_reader14zip_local_head18get_file_data_sizeEv
0000000100474aa8 T __ZN10zip_reader14zip_local_head20get_file_data_offsetEv
0000000100474994 T __ZN10zip_reader17load_local_headerERNS_14zip_file_entryEPNS_14zip_local_headE
000000010047470c T __ZN10zip_reader6get_fsEv
0000000100474724 T __ZN10zip_reader8open_zipEPKc
00000001003e2db8 T __ZN11ITaskRunner10GetGapNodeEv
00000001003e02e8 T __ZN11ITaskRunner11GetPriorityEv
00000001003e0318 T __ZN11ITaskRunner11GetTaskCoreEv
00000001003e00d4 T __ZN11ITaskRunner11IsTaskValidEv
00000001003e2cf8 T __ZN11ITaskRunner12GetTotalSizeEv
00000001003e2ce0 T __ZN11ITaskRunner16GetCompletedSizeEv
00000001003e2d24 T __ZN11ITaskRunner16GetDownloadSpeedEv
00000001003e60d4 T __ZN11ITaskRunner17GetLastDownloadIPEv
00000001003f17d0 T __ZN11ITaskRunner18UpdateLastActivityEv
00000001003f1854 T __ZN11ITaskRunner21IncreaseBytesDownloadEx
00000001003e2b10 T __ZN11ITaskRunner9CheckDeadEv
00000001003e2cac T __ZN11ITaskRunner9GetRawUrlEv
000000010044a75c T __ZN11dirSplitter3GetEi
000000010044a744 T __ZN11dirSplitter8GetCountEv
00000001002ca644 T __ZN11ifscompress16load_range_info2Ev
00000001002cd1d0 T __ZN11ifscompress17write_packet_dataER13file_seg_infoR18binary_file_writerP22IFSFileStreamInterface
000000010030facc T __ZN11ifscompress17write_packet_dataER18binary_file_writerPvxi
00000001002ca8b0 T __ZN11ifscompress21write_compressed_fileEPKc
00000001002cd024 T __ZN11ifscompress21write_packet_tag_infoEyR18binary_file_writer
000000010030f90c T __ZN11ifscompress21write_packet_tag_infoEyiR18binary_file_writer
00000001002cadb8 T __ZN11seg_manager7add_segER7seg_inf
00000001002cc110 T __ZN11seg_manager9merge_segER7seg_infS0_
0000000100452a90 T __ZN12HashTableInt4findEy
00000001004434c8 T __ZN12HashTableInt6insertEy
00000001003f6100 T __ZN12HttpDownload15GetErrorNoticedEv
00000001003f1818 T __ZN12HttpDownload15SetErrorNoticedEb
00000001003f40fc T __ZN12HttpDownload19GetHeaderStatusCodeEv
00000001003f40dc T __ZN12HttpDownload19SetHeaderStatusCodeEj
00000001003f187c T __ZN12HttpDownload24SetMultiGapDisconnectingEb
00000001003f183c T __ZN12HttpDownload6GetUriEv
00000001003d99a4 T __ZN12HttpDownload6SetGapEP3Gap
000000010044a3e8 T __ZN12TNIFSArchive11GetDirEntryEj
000000010043f350 T __ZN12TNIFSArchive11get_bet_keyEv
000000010043ee58 T __ZN12TNIFSArchive11get_het_keyEv
000000010044e7f8 T __ZN12TNIFSArchive11verify_fileEyyPh
0000000100451460 T __ZN12TNIFSArchive13get_patch_tagEv
00000001004469b0 T __ZN12TNIFSArchive13load_passwordEPc
00000001004528b4 T __ZN12TNIFSArchive14GetNonDirEntryEj
0000000100436358 T __ZN12TNIFSArchive14_getEntryCountEv
000000010044cbb0 T __ZN12TNIFSArchive16GetTotalFileSizeEv
0000000100450c58 T __ZN12TNIFSArchive18get_max_file_countEv
0000000100450a70 T __ZN12TNIFSArchive19get_file_index_infoERNSt3__16vectorIiNS0_9allocatorIiEEEE
0000000100447694 T __ZN12TNIFSArchive21verify_file_table_md5Ev
000000010045094c T __ZN12TNIFSArchive24GetFileSectorTableOffsetEP10TFileEntryRyS2_
0000000100451518 T __ZN12TNIFSArchive25InitBitMapByFileMapping_iEb
00000001003228d8 T __ZN12extract_info12add_ifs_pathEPKc
00000001003278cc T __ZN12extract_info15get_ifs_path_atEi
0000000100327890 T __ZN12extract_info18get_ifs_path_countEv
00000001012a8200 T __ZN12gcloud_voice14CThreadLogFile11DealLogProcEPKv
000000010031aab0 T __ZN13IFSDownloader12download_fidEi
0000000100315648 T __ZN13IFSDownloader13download_fileENSt3__112basic_stringIcNS0_11char_traitsIcEENS0_9allocatorIcEEEERd
0000000100315c78 T __ZN13IFSDownloader13poll_callbackEv
0000000100315170 T __ZN13IFSDownloader4initENSt3__112basic_stringIcNS0_11char_traitsIcEENS0_9allocatorIcEEEE
00000001003e0aa8 T __ZN13PRIORITYELMNT11IsExclusiveEv
00000001003e0ad0 T __ZN13PRIORITYELMNT13IsPlayAndDownEv
00000001003e0b20 T __ZN13PRIORITYELMNT13IsPreDownloadEv
00000001003e66e8 T __ZN13PRIORITYELMNT7IsValidEv
00000001003ff37c T __ZN13PRIORITYELMNT9IsWaitingEv
00000001000e0f78 T __ZN13cu_thread_imp10is_runningEv
00000001000e1148 T __ZN13cu_thread_imp11thread_stopEv
00000001000e0de0 T __ZN13cu_thread_imp3runEv
00000001000e0fc0 T __ZN13cu_thread_imp4stopEv
00000001000e0e68 T __ZN13cu_thread_imp5startEv
000000010031f620 T __ZN13download_info10get_url_atEi
00000001003795a4 T __ZN13download_info13get_url_countEv
00000001003792b0 T __ZN13download_info7add_urlEPKc
0000000100314b08 T __ZN13ifs_full_diff16diff_ifs_packageEP12TNIFSArchiveS1_
0000000100430b10 T __ZN13seiral_reader4skipEy
000000010044cd94 T __ZN14TNIFSDirWalker11GetDirEntryEv
000000010044ac50 T __ZN14TNIFSDirWalker11insert_nodeEy
000000010044cd7c T __ZN14TNIFSDirWalker13GetChildCountEv
00000001003802bc T __ZN14cu_tcltapi_imp10get_svr_ipEv
0000000100380328 T __ZN14cu_tcltapi_imp4initEPKci
00000001003805c8 T __ZN14cu_tcltapi_imp4recvEPciRii
00000001003804c0 T __ZN14cu_tcltapi_imp4sendEPKcii
00000001003834b8 T __ZN14cu_version_imp10get_svr_ipEv
00000001003833f4 T __ZN14cu_version_imp4initEPKci
0000000100383960 T __ZN14cu_version_imp8recv_resERN27apollo_clientupdateprotocol6CusPkgEi
0000000100383608 T __ZN14cu_version_imp8send_reqERN27apollo_clientupdateprotocol6CusPkgEi
0000000100371718 T __ZN14error_reporter15on_handle_errorEi
0000000100339e5c T __ZN14ifs_dll_loader18GetIFSLibInterfaceEv
0000000100324114 T __ZN14ifs_dll_loader4initEPKc
0000000100317658 T __ZN14ifs_restore_cb13wait_completeEv
0000000100314eb0 T __ZN14new_ifs_opener10GetArchiveEv
00000001003143ec T __ZN14new_ifs_opener12open_archiveEPKc
00000001003dd668 T __ZN15CDownloadMgrImp9GetConfigEv
000000010024e044 T __ZN15HandleAllocator4FreeEj
000000010024d708 T __ZN15HandleAllocator5AllocEv
000000010024b538 T __ZN15HandleAllocator5ResetEv
0000000101142fd4 T __ZN15MeshRayCollider7collideILi0ELi1EEEvRKN5physx6PxVec3ES4_fbPKNS1_2Gu17RTreeTriangleMeshERNS5_15MeshHitCallbackINS1_12PxRaycastHitEEEPS3_
0000000101142c44 T __ZN15MeshRayCollider7collideILi1ELi0EEEvRKN5physx6PxVec3ES4_fbPKNS1_2Gu17RTreeTriangleMeshERNS5_15MeshHitCallbackINS1_12PxRaycastHitEEEPS3_
0000000101143308 T __ZN15MeshRayCollider7collideILi1ELi1EEEvRKN5physx6PxVec3ES4_fbPKNS1_2Gu17RTreeTriangleMeshERNS5_15MeshHitCallbackINS1_12PxRaycastHitEEEPS3_
00000001003f8b1c T __ZN15NumberFormatter6formatEx
000000010041b974 T __ZN15NumberFormatter9formatHexEji
0000000100472358 T __ZN15TFileStream_imp13open_apk_fileEPKcS1_
00000001000c2960 T __ZN15_tagGcpDataInfoaSEOS_
00000001000bdcac T __ZN15_tagGcpDataInfoaSERKS_
00000001002b8ce4 T __ZN15curesfilesystem18GetCuresFileHandleEv
00000001002b8cfc T __ZN15curesfilesystem18GetCuresFileHeaderEv
00000001002b9a84 T __ZN15curesfilesystem20SetIfsToResPieceInfoEPNSt3__13mapIjjNS0_4lessIjEENS0_9allocatorINS0_4pairIKjjEEEEEE
00000001002b9aa4 T __ZN15curesfilesystem20SetResToIfsPieceInfoEPNSt3__16vectorIjNS0_9allocatorIjEEEE
00000001002edbc8 T __ZN15file_downloader13download_fileEPKcS1_P18file_downloader_cb
00000001002ed904 T __ZN15file_downloader4initEv
0000000100339710 T __ZN15listfile_parser14load_from_fileEPKc
0000000100339ddc T __ZN15listfile_parser20get_fis_file_item_atEi
000000010033b83c T __ZN15listfile_parser21parse_from_json_valueERN7cu_Json5ValueE
0000000100339da0 T __ZN15listfile_parser23get_ifs_file_item_countEv
000000010045239c T __ZN15merged_hasi_map13findFileEntryEPKc
0000000100450a1c T __ZN15merged_hasi_map13findFileEntryERy
0000000100452a44 T __ZN15merged_hasi_map4findEPKc
00000001004523f0 T __ZN15merged_hasi_map4findERy
000000010044241c T __ZN15merged_hasi_map4initEi
00000001004424b4 T __ZN15merged_hasi_map6InsertERyP12TNIFSArchiveP10TFileEntry
000000010034f154 T __ZN15version_service19VersionUpdateClient11setProtocolENSt3__110shared_ptrIN6pebble3rpc8protocol9TProtocolEEE
0000000100350924 T __ZN15version_service19VersionUpdateClient11setProtocolENSt3__110shared_ptrIN6pebble3rpc8protocol9TProtocolEEES7_
00000001003ec3e0 T __ZN16CDownloadProcess12GetExitEventEv
00000001003e0e58 T __ZN16CDownloadProcess14GetRunningModeEv
00000001003fe200 T __ZN16cu_download_listIP13PRIORITYELMNTE10checkEmptyEv
00000001003fe00c T __ZN16cu_download_listIP13PRIORITYELMNTE10initializeEv
00000001003ff314 T __ZN16cu_download_listIP13PRIORITYELMNTE3endEv
00000001003ff2a8 T __ZN16cu_download_listIP13PRIORITYELMNTE5beginEv
00000001003fdac0 T __ZN16cu_download_listIP13PRIORITYELMNTE5eraseE7cu_iterIS1_E
00000001003fd92c T __ZN16cu_download_listIP13PRIORITYELMNTE6insertE7cu_iterIS1_ERKS1_
0000000100307724 T __ZN17diffupdate_action10on_successEv
0000000100303ca0 T __ZN17diffupdate_action11on_progressEddi
00000001003058bc T __ZN17diffupdate_action15on_handle_errorEi
00000001003077c0 T __ZN17diffupdate_action18download_list_fileENSt3__112basic_stringIcNS0_11char_traitsIcEENS0_9allocatorIcEEEE
0000000100305d14 T __ZN17diffupdate_action8run_taskEv
00000001002ef204 T __ZN17ifs_listfile_item12get_file_urlEv
000000010033dac4 T __ZN17ifs_listfile_item13get_file_sizeEv
00000001002ef218 T __ZN17ifs_listfile_item13get_spare_urlEv
0000000100322bcc T __ZN17ifs_listfile_item19get_ifs_updata_typeEv
00000001003220d8 T __ZN17ifs_listfile_item19get_local_file_pathEv
000000010033d2e8 T __ZN17ifs_listfile_item4dumpEv
000000010045178c T __ZN18TNIFSDirWalkerById11GetDirEntryEv
000000010044b220 T __ZN18TNIFSDirWalkerById11insert_nodeEy
0000000100451774 T __ZN18TNIFSDirWalkerById13GetChildCountEv
0000000100430538 T __ZN18binary_file_packer10set_offsetEx
00000001004763cc T __ZN18binary_file_packer11get_versionEv
000000010043011c T __ZN18binary_file_packer13get_body_sizeEv
0000000100430f78 T __ZN18binary_file_packer13get_md5_beginEv
00000001004763ec T __ZN18binary_file_packer15get_body_offsetEv
00000001004312e8 T __ZN18binary_file_packer15set_head_offsetEy
000000010043130c T __ZN18binary_file_packer17get_length_offsetEv
000000010043041c T __ZN18binary_file_packer8get_typeEv
0000000100430ce0 T __ZN18binary_file_reader12read_tag_md5ER18binary_file_packerPc
00000001002ccf6c T __ZN18binary_file_writer11create_fileEPKc
000000010043117c T __ZN18binary_file_writer22_finish_current_headerEv
000000010030f5dc T __ZN18ifs_res_downloader13download_fileEP21ifs_res_downloader_cbNSt3__112basic_stringIcNS2_11char_traitsIcEENS2_9allocatorIcEEEER18offset_file_writer
000000010030de38 T __ZN18ifs_res_downloader19download_ifs_to_resEP21ifs_res_downloader_cbNSt3__112basic_stringIcNS2_11char_traitsIcEENS2_9allocatorIcEEEES8_
0000000100310070 T __ZN18offset_file_writer18wait_download_doneEP21ifs_res_downloader_cb
000000010030f8dc T __ZN18offset_file_writer3bufEv
000000010030f8f4 T __ZN18offset_file_writer4ibufEv
000000010030f514 T __ZN18offset_file_writer4initEyy
000000010030fd10 T __ZN18offset_file_writer6offsetEv
00000001003795e0 T __ZN18version_action_imp14no_need_updateERN2cu19IVersionMgrCallback15_tagVersionInfoE
000000010037418c T __ZN18version_action_imp15on_handle_errorEi
0000000100372ea4 T __ZN18version_action_imp19do_get_version_infoERN27apollo_clientupdateprotocol6CusPkgE
000000010037433c T __ZN18version_action_imp21do_rotate_version_svrEv
0000000100379710 T __ZN18version_action_imp22create_download_actionERN2cu19IVersionMgrCallback15_tagVersionInfoE
0000000100378278 T __ZN18version_action_imp22create_ifs_full_updateERN27apollo_clientupdateprotocol6CusPkgEi
0000000100376d6c T __ZN18version_action_imp25create_source_sync_updateEPN9ClientCfg8StrategyE
0000000100377fd0 T __ZN18version_action_imp26on_handle_new_version_infoERKNS_23new_version_info_structE
00000001003773a4 T __ZN18version_action_imp39create_filelist_check_and_source_updateEPN9ClientCfg8StrategyE
0000000100374f44 T __ZN18version_action_imp43handle_CUS_CMD_GET_MULTI_UPDATE_VERSION_RESERN27apollo_clientupdateprotocol6CusPkgE
00000001003740ac T __ZN18version_action_imp4DoneERN27apollo_clientupdateprotocol6CusPkgE
00000001000c7b38 T __ZN19NNoneAccountAdapter23_tagNoneAccountInitInfoaSERKS0_
00000001002f8554 T __ZN19cu_resumebrokeninfo22cu_st_resumebrokeninfo16GetCompletedSizeEv
000000010031fa50 T __ZN19filelist_downloader20init_from_custom_strENSt3__112basic_stringIcNS0_11char_traitsIcEENS0_9allocatorIcEEEES6_S6_
0000000100473cc0 T __ZN20AndroidZipFileStream9open_fileEPKcS1_
000000010030c2f0 T __ZN20ifs_file_list_opener10GetArchiveEv
000000010030d464 T __ZN20ifs_file_list_opener22gen_ifs_file_full_pathEPKcS1_
000000010030d5d8 T __ZN20ifs_file_list_opener22gen_res_file_full_pathEPKcS1_
0000000100308ea4 T __ZN20ifs_file_list_opener4initEPKcS1_b
000000010030a548 T __ZN20ifs_file_list_opener8init_resEPKcS1_b
0000000100329be0 T __ZN21extract_action_config4dumpEv
00000001003295ec T __ZN21extract_action_config4loadERN7cu_Json5ValueE
0000000100304530 T __ZN21filelist_for_download14load_from_jsonERN7cu_Json5ValueE
000000010037bae0 T __ZN21version_action_config4dumpEv
000000010037a2b4 T __ZN21version_action_config4loadERN7cu_Json5ValueE
000000010037216c T __ZN21version_action_configaSERKS_
0000000100322be4 T __ZN21version_update_action12check_ifs_okEPKc
000000010032506c T __ZN21version_update_action12destroy_taskEv
00000001003220f0 T __ZN21version_update_action12get_ifs_pathEPKc
000000010031f788 T __ZN21version_update_action13cancel_actionEv
0000000100320c5c T __ZN21version_update_action15parse_list_fileEPKc
000000010036f4e8 T __ZN21version_update_action15update_progressExyy
000000010031ecc8 T __ZN21version_update_action17set_action_configEP28version_update_action_config
0000000100321bac T __ZN21version_update_action18download_list_fileEPKc
0000000100321b24 T __ZN21version_update_action19report_action_errorEi
000000010031eca8 T __ZN21version_update_action19set_action_callbackEPN2cu15IActionCallbackE
000000010036fa58 T __ZN21version_update_action20calc_update_progressEv
0000000100323654 T __ZN21version_update_action20create_download_taskEPKcS1_Rx
0000000100320adc T __ZN21version_update_action21get_new_listfile_pathEv
0000000100324d68 T __ZN21version_update_action21get_old_listfile_pathEv
0000000100321dd4 T __ZN21version_update_action23get_new_listfile_path_iEv
00000001003238bc T __ZN21version_update_action25on_download_ifs_file_doneEv
000000010031ece8 T __ZN21version_update_action4initEPKc
0000000100450564 T __ZN23TNIFS_PatchedFileHandle15push_parent_dirEy
0000000100311470 T __ZN23apk_full_update_session11do_one_diffEP19IFSArchiveInterfaceP17ifs_listfile_itemPKcS5_P21filelist_for_download
0000000100315fa4 T __ZN23apk_full_update_session12extract_fileEP19IFSArchiveInterfaceNSt3__112basic_stringIcNS2_11char_traitsIcEENS2_9allocatorIcEEEES8_
000000010030cf64 T __ZN23apk_full_update_session14do_diff_mergerEP19IFSArchiveInterfaceR29diffupdate_action_desc_configP21filelist_for_download
00000001003167d4 T __ZN23apk_full_update_session15restore_one_ifsENSt3__112basic_stringIcNS0_11char_traitsIcEENS0_9allocatorIcEEEES6_
0000000100314540 T __ZN23apk_full_update_session20download_restore_ifsENSt3__112basic_stringIcNS0_11char_traitsIcEENS0_9allocatorIcEEEES6_
0000000100309f5c T __ZN23apk_full_update_session21do_download_meta_infoER29diffupdate_action_desc_config
0000000100316ea8 T __ZN23apk_full_update_session21download_ifs_listfileENSt3__112basic_stringIcNS0_11char_traitsIcEENS0_9allocatorIcEEEES6_
0000000100309e80 T __ZN23apk_full_update_session4initEPKc
0000000100148230 T __ZN23apollo_lwip_factory_imp6get_csEv
000000010030afd0 T __ZN23ifs_diff_with_file_list7do_diffEP19IFSArchiveInterfaceR24resource_descript_readerR8diff_res
00000001002cc070 T __ZN24clear_file_bitmap_handle17clear_file_bitmapEPKcRyS2_Ri
0000000100303d5c T __ZN24resource_descript_reader9load_jsonERN7cu_Json5ValueE
0000000100232a40 T __ZN25IFSDirWalkerInterfaceByID13GetChildCountEv
0000000100232a94 T __ZN25IFSDirWalkerInterfaceByID13GetChildEntryEi
00000001002329a8 T __ZN25IFSDirWalkerInterfaceByID7OpenDirEj
00000001053a4078 D __ZN26CAkTrackedGameObjComponentILj0EE5sListE
00000001053a33e0 D __ZN26CAkTrackedGameObjComponentILj1EE5sListE
00000001053a3468 D __ZN26CAkTrackedGameObjComponentILj2EE5sListE
00000001053a4058 D __ZN26CAkTrackedGameObjComponentILj3EE5sListE
00000001053a3400 D __ZN26CAkTrackedGameObjComponentILj4EE5sListE
00000001053a49a8 D __ZN26CAkTrackedGameObjComponentILj5EE5sListE
00000001053a4988 D __ZN26CAkTrackedGameObjComponentILj6EE5sListE
00000001053a49e8 D __ZN26CAkTrackedGameObjComponentILj7EE5sListE
00000001053a49c8 D __ZN26CAkTrackedGameObjComponentILj8EE5sListE
0000000100325a84 T __ZN28version_update_action_config4loadERN7cu_Json5ValueE
00000001001489e0 T __ZN29cmn_listen_sock_interface_imp9on_acceptEPN10apollo_p2p7tcp_pcbEa
00000001003059d8 T __ZN29diffupdate_action_desc_config4dumpEv
000000010031da68 T __ZN29diffupdate_action_desc_config4loadERN7cu_Json5ValueE
0000000100290dfc T __ZN2cu10CActionMgr15RecvActionMsg_rEv
000000010037f4dc T __ZN2cu10CActionMgr22SentMsgToCurrentActionEPKc
000000010037fa04 T __ZN2cu10CActionMgr23GetCurrentDownloadSpeedEv
0000000100290fe4 T __ZN2cu10CActionMgr23SentMsgToCurrentActionCEPKc
000000010025dc24 T __ZN2cu12CEifsWrapper11IsDirectoryEj
000000010025e3a4 T __ZN2cu12CEifsWrapper22GetIFSArchiveInterfaceEv
000000010037f090 T __ZN2cu13ActionFactory11GetUserDataEv
00000001002ec47c T __ZN2cu13ActionFactory13GetAciontDataEv
000000010037f0c0 T __ZN2cu13ActionFactory13GetApolloPathEv
000000010037eff0 T __ZN2cu13ActionFactory13GetUpdateTypeEv
000000010028cc68 T __ZN2cu13ActionFactory15add_action_descEPNS_17action_descriptorE
000000010037f008 T __ZN2cu13ActionFactory16NeedFirstExtractEv
000000010037d5dc T __ZN2cu13ActionFactory24GetIOSInitAcquirWakeLockEv
000000010037d698 T __ZN2cu13ActionFactory27GetIOSUninitReleaseWakeLockEv
0000000100292d1c T __ZN2cu13ListQueue_OneINS_15_tagActionErrorEE7GetItemERS1_
0000000100293200 T __ZN2cu13ListQueue_OneINS_15_tagActionErrorEE7SetItemES1_
0000000100292a9c T __ZN2cu13ListQueue_OneINS_18_tagActionProgressEE7GetItemERS1_
0000000100293450 T __ZN2cu13ListQueue_OneINS_18_tagActionProgressEE7SetItemES1_
0000000100377f60 T __ZN2cu14_tagAppVersion4loadEy
000000010037d780 T __ZN2cu16CVersionStrategy11PollActionsEv
000000010029de30 T __ZN2cu16cu_filelist_itemaSERKS0_
00000001002407ec T __ZN2cu17CDataMgrIfsConfig19GetIfsPackageConfigEv
00000001002407d0 T __ZN2cu17CDataMgrIfsConfig6HasIFSEv
00000001002c95b4 T __ZN2cu17CuResFileDownload20IOSBGDownloadFileGapaSERKS1_
00000001002925c0 T __ZN2cu17ListQueue_One_DelIPNS_13IActionResultEE10GetItemRefERS2_
00000001002936e4 T __ZN2cu17ListQueue_One_DelIPNS_13IActionResultEE7SetItemES2_
00000001002979c8 T __ZN2cu17ListQueue_One_DelIPNS_17IAppCallbackEventEE7GetItemERS2_
00000001002978f8 T __ZN2cu17ListQueue_One_DelIPNS_17IAppCallbackEventEE7SetItemES2_
000000010029127c T __ZN2cu17ListQueue_One_DelIPNS_7IActionEE7GetItemERS2_
00000001002930e8 T __ZN2cu17ListQueue_One_DelIPNS_7IActionEE7SetItemES2_
0000000100245dd0 T __ZN2cu17_tagPreAppVersion4loadEy
00000001002513c0 T __ZN2cu17_tagPreAppVersion6isSameERS0_
0000000100258ba0 T __ZN2cu18CuEifsFileHeaderSt10SetEifsMd5ERKNSt3__112basic_stringIcNS1_11char_traitsIcEENS1_9allocatorIcEEEE
0000000100258ef4 T __ZN2cu18CuEifsFileHeaderSt15SetEifsTempPathERKNSt3__112basic_stringIcNS1_11char_traitsIcEENS1_9allocatorIcEEEE
00000001002ec490 T __ZN2cu19CVersionManagerData18GetFullUpdateParamEv
000000010022ef7c T __ZN2cu19cu_ifspackageconfig20get_fis_file_item_atEi
000000010022ecd4 T __ZN2cu19cu_ifspackageconfig23get_ifs_file_item_countEv
00000001003010a0 T __ZN2cu21CMemoryTaskFileSystem16SetWriteCallBackEPNS_20CMemoryWriteCallBackE
000000010022455c T __ZN2cu22_tagNewPreDownloadInfoaSERKS0_
000000010024ada4 T __ZN2cu7cu_nifs22GetIFSArchiveInterfaceEv
0000000100237f64 T __ZN2cu8FileInfo11GetFileSizeEv
00000001002fbfe4 T __ZN2cu9CTaskFile16GetBrokenInfoKeyEv
00000001002fb9b0 T __ZN2cu9CTaskFile19SetResumeBrokenInfoENSt3__112basic_stringIcNS1_11char_traitsIcEENS1_9allocatorIcEEEEPN19cu_resumebrokeninfo22cu_st_resumebrokeninfoE
0000000100420790 T __ZN2cu9CuResFile12getResBitmapEv
00000001002f1110 T __ZN2cu9CuResFile15GetCuResFileUrlEv
0000000100421c28 T __ZN2cu9CuResFile15getCuResArchiveEv
0000000100420778 T __ZN2cu9CuResFile20getCuResFileHeaderStEv
00000001004207a8 T __ZN2cu9CuResFile20getResToIfsPieceInfoEv
000000010029626c T __ZN2cu9ListQueueINS_15_tagActionErrorEE10AppendItemES1_
0000000100294ebc T __ZN2cu9ListQueueINS_15_tagActionErrorEE5ClearEv
000000010029688c T __ZN2cu9ListQueueINS_18_tagActionProgressEE10AppendItemES1_
0000000100292734 T __ZN2cu9ListQueueINS_18_tagActionProgressEE5ClearEv
0000000100296ebc T __ZN2cu9ListQueueIPNS_13IActionResultEE10AppendItemES2_
000000010029278c T __ZN2cu9ListQueueIPNS_13IActionResultEE13DeleteAllItemEv
00000001002951e4 T __ZN2cu9ListQueueIPNS_13IActionResultEE5ClearEv
0000000100298d6c T __ZN2cu9ListQueueIPNS_17IAppCallbackEventEE10AppendItemES2_
00000001002985bc T __ZN2cu9ListQueueIPNS_17IAppCallbackEventEE13DeleteAllItemEv
00000001002988e0 T __ZN2cu9ListQueueIPNS_17IAppCallbackEventEE5ClearEv
000000010022340c T __ZN2cu9ListQueueIPNS_17data_callback_mgr12IDownloadMsgEE10AppendItemES3_
0000000100222ca0 T __ZN2cu9ListQueueIPNS_17data_callback_mgr12IDownloadMsgEE13DeleteAllItemEv
0000000100225204 T __ZN2cu9ListQueueIPNS_17data_callback_mgr12IDownloadMsgEE5ClearEv
000000010022320c T __ZN2cu9ListQueueIPNS_17data_callback_mgr12IDownloadMsgEE8PeekItemEv
0000000100252ff4 T __ZN2cu9ListQueueIPNS_20IPreDownloadInterMsgEE10AppendItemES2_
00000001002522a0 T __ZN2cu9ListQueueIPNS_20IPreDownloadInterMsgEE13DeleteAllItemEv
0000000100252f14 T __ZN2cu9ListQueueIPNS_20IPreDownloadInterMsgEE4SizeEv
0000000100254fb8 T __ZN2cu9ListQueueIPNS_20IPreDownloadInterMsgEE5ClearEv
0000000100252e08 T __ZN2cu9ListQueueIPNS_20IPreDownloadInterMsgEE8PeekItemEv
0000000100297b30 T __ZN2cu9ListQueueIPNS_7IActionEE10AppendItemES2_
000000010028fdf4 T __ZN2cu9ListQueueIPNS_7IActionEE10RemoveItemES2_
00000001002989f0 T __ZN2cu9ListQueueIPNS_7IActionEE13DeleteAllItemEv
00000001002910d0 T __ZN2cu9ListQueueIPNS_7IActionEE4SizeEv
0000000100298d14 T __ZN2cu9ListQueueIPNS_7IActionEE5ClearEv
000000010028f9b4 T __ZN2cu9ListQueueIPNS_7IActionEE7AddItemES2_S2_
0000000100297bd0 T __ZN2cu9ListQueueIPNS_7IActionEE8PeekItemEv
00000001002958f4 T __ZN2cu9ListQueueIPNS_7IActionEE8finder_tclES2_
00000001002926bc T __ZN2cu9ListQueueIPNS_7IActionEE9PushFrontES2_
00000001003179a0 T __ZN30CCuDownloadRangeCallBack_i_imp18set_total_downloadEi
00000001003179c4 T __ZN30CCuDownloadRangeCallBack_i_imp9wait_doneEv
00000001001497b8 T __ZN30cmn_connect_sock_interface_imp11on_tcp_sentEPN10apollo_p2p7tcp_pcbEt
0000000100149a6c T __ZN30cmn_connect_sock_interface_imp17connected_callbckEv
00000001001490b0 T __ZN30cmn_connect_sock_interface_imp7on_recvEPN10apollo_p2p4pbufEa
0000000100148d8c T __ZN30cmn_connect_sock_interface_imp8on_errorEa
000000010014a3b8 T __ZN31cmn_stream_socket_interface_imp14timer_on_errorEv
0000000100148248 T __ZN31cmn_stream_socket_interface_imp7on_recvEPN10apollo_p2p7tcp_pcbEPNS0_4pbufEa
000000010014864c T __ZN31cmn_stream_socket_interface_imp8on_errorEa
0000000100154484 T __ZN31cmn_stream_socket_interface_impdlEPv
00000001040ce0af S __ZN3TDM9rapidjson16GenericStringRefIcE11emptyStringE
00000001002ce8d0 T __ZN4CBuf11updateRangeExx
00000001002ce5c8 T __ZN4CBuf4initExx
00000001002cdba0 T __ZN4CBuf5clearEv
00000001002cdc08 T __ZN4CBuf5writeExPcxRx
00000001002cdd24 T __ZN4CBuf6isFullEv
0000000100e0f764 T __ZN4auro7details9copy_fptrIN3kee7details10MallocFreeINS_5wwise10MallocFreeEEEEEmPvPKv
00000001003d53c4 T __ZN4fund12mtshared_ptrI5CTaskNS_6memory15_shared_baseptrIS1_Lb0ELb1EEEEaSERKS5_
00000001003fb998 T __ZN4fund4lock5mutex4lockEv
00000001003fba9c T __ZN4fund4lock5mutex6unlockEv
00000001003fc238 T __ZN4fund6memory15_shared_baseptrI19_tagCreateTaskInnerLb0ELb1EE9_ptr_data7add_refEv
00000001003fb668 T __ZN4fund6memory15_shared_baseptrI19_tagCreateTaskInnerLb0ELb1EE9_ptr_data7releaseEv
00000001003e701c T __ZN4fund6memory15_shared_baseptrI5CTaskLb0ELb1EE9_ptr_data7add_refEv
00000001003e688c T __ZN4fund6memory15_shared_baseptrI5CTaskLb0ELb1EE9_ptr_data7releaseEv
00000001003d56b4 T __ZN4fund6memory15_shared_baseptrI5CTaskLb0ELb1EE9_ptr_dataaSERKS4_
00000001003d5628 T __ZN4fund6memory15_shared_baseptrI5CTaskLb0ELb1EEaSERKS3_
00000001003fb9fc T __ZN4fund6memory7counterILb1EE3decERVl
00000001003fc394 T __ZN4fund6memory7counterILb1EE3incERVl
00000001003fc36c T __ZN4fund6memory7counterILb1EE7add_refENS_8Int2TypeILi0EEE
00000001003fc2f0 T __ZN4fund6memory7counterILb1EE7add_refENS_8Int2TypeILi1EEE
00000001003fc2cc T __ZN4fund6memory7counterILb1EE7add_refEv
00000001003fb868 T __ZN4fund6memory7counterILb1EE7releaseENS_8Int2TypeILi0EEE
00000001003fb7b0 T __ZN4fund6memory7counterILb1EE7releaseENS_8Int2TypeILi1EEE
00000001003fb748 T __ZN4fund6memory7counterILb1EE7releaseEv
000000010022165c T __ZN5ABase10TdrReadBuf10readUInt16ERt
00000001002214fc T __ZN5ABase10TdrReadBuf10readUInt16ERtm
0000000100221764 T __ZN5ABase10TdrReadBuf10readUInt32ERj
000000010038ae6c T __ZN5ABase10TdrReadBuf10readUInt32ERjm
0000000100106380 T __ZN5ABase10TdrReadBuf10readUInt64ERy
0000000100123c1c T __ZN5ABase10TdrReadBuf11skipForwardEm
0000000100112084 T __ZN5ABase10TdrReadBuf12readVarInt32ERi
000000010011119c T __ZN5ABase10TdrReadBuf12readVarInt64ERx
0000000100123ac0 T __ZN5ABase10TdrReadBuf13decode_64_varEPKcmRmRyi
00000001001072d8 T __ZN5ABase10TdrReadBuf13readVarUInt16ERt
0000000100105f38 T __ZN5ABase10TdrReadBuf13readVarUInt32ERj
0000000100106168 T __ZN5ABase10TdrReadBuf13readVarUInt64ERy
000000010022225c T __ZN5ABase10TdrReadBuf3setEPKcm
000000010010613c T __ZN5ABase10TdrReadBuf8readInt8ERa
0000000100221c4c T __ZN5ABase10TdrReadBuf9readBytesEPvm
0000000100385840 T __ZN5ABase10TdrReadBuf9readInt16ERs
0000000100221738 T __ZN5ABase10TdrReadBuf9readInt32ERi
00000001001114bc T __ZN5ABase10TdrReadBuf9readInt64ERx
0000000100105a04 T __ZN5ABase10TdrReadBuf9readUInt8ERh
0000000100106124 T __ZN5ABase10TdrTLVUtil10getFieldIdEj
000000010012b8e8 T __ZN5ABase10TdrTLVUtil10getMsgSizeEPKcm
000000010010624c T __ZN5ABase10TdrTLVUtil17skipUnknownFieldsERNS_10TdrReadBufEi
00000001001056ec T __ZN5ABase10TdrTLVUtil7makeTagEii
0000000100106234 T __ZN5ABase10TdrTLVUtil9getTypeIdEj
00000001000eff8c T __ZN5ABase11ABaseCommon14GetProjectNameEv
0000000100221a5c T __ZN5ABase11TdrWriteBuf10writeBytesEPKvm
0000000100384d28 T __ZN5ABase11TdrWriteBuf10writeInt16Es
0000000100221290 T __ZN5ABase11TdrWriteBuf10writeInt32Ei
00000001001107f0 T __ZN5ABase11TdrWriteBuf10writeInt64Ex
0000000100104eb8 T __ZN5ABase11TdrWriteBuf10writeUInt8Eh
00000001002211bc T __ZN5ABase11TdrWriteBuf11writeUInt16Et
00000001002213b8 T __ZN5ABase11TdrWriteBuf11writeUInt16Etm
00000001002212bc T __ZN5ABase11TdrWriteBuf11writeUInt32Ej
0000000100221b3c T __ZN5ABase11TdrWriteBuf11writeUInt32Ejm
00000001001058b8 T __ZN5ABase11TdrWriteBuf11writeUInt64Ey
0000000100111a74 T __ZN5ABase11TdrWriteBuf13writeVarInt32Ei
0000000100110660 T __ZN5ABase11TdrWriteBuf13writeVarInt64Ex
0000000100106b7c T __ZN5ABase11TdrWriteBuf14writeVarUInt16Et
0000000100105570 T __ZN5ABase11TdrWriteBuf14writeVarUInt32Ej
000000010010573c T __ZN5ABase11TdrWriteBuf14writeVarUInt64Ey
0000000100221d6c T __ZN5ABase11TdrWriteBuf17writeCharWithNullEc
000000010022213c T __ZN5ABase11TdrWriteBuf4_setEPcm
00000001002221d8 T __ZN5ABase11TdrWriteBuf5_freeEv
0000000100221994 T __ZN5ABase11TdrWriteBuf7reserveEm
0000000100221d2c T __ZN5ABase11TdrWriteBuf7textizeEPKcz
00000001002222a8 T __ZN5ABase11TdrWriteBuf8vtextizeEPKcPc
000000010010570c T __ZN5ABase11TdrWriteBuf9writeInt8Ea
000000010016eb60 T __ZN5ABase18CAFunctionSelector3SetEPNS_11CTargetBaseEMS1_FvPvES3_
000000010010132c T __ZN5ABase18CAFunctionSelector3SetEPNS_11CTargetBaseEMS1_FvPvS3_ES3_S3_
0000000100101390 T __ZN5ABase18CAFunctionSelector3SetEPNS_11CTargetBaseEMS1_FvPvS3_S3_ES3_S3_S3_
00000001000b6110 T __ZN5ABase18CAFunctionSelector3SetEPNS_11CTargetBaseEMS1_FvvE
00000001000e85dc T __ZN5ABase19CApolloBufferReader4ReadER7AString
00000001000e82c8 T __ZN5ABase19CApolloBufferReader4ReadERb
00000001000e81f0 T __ZN5ABase19CApolloBufferReader4ReadERi
00000001000e8c5c T __ZN5ABase19CApolloBufferReader4ReadERj
00000001000e8968 T __ZN5ABase19CApolloBufferReader4ReadERx
00000001000e8760 T __ZN5ABase19CApolloBufferReader4ReadERy
00000001000c4914 T __ZN5ABase19CApolloBufferReader4ReadI7AStringEEvR6AArray
00000001000e8b00 T __ZN5ABase19CApolloBufferReader4ReadIN6GCloud5TokenEEEvR6AArray
00000001000af220 T __ZN5ABase19CApolloBufferWriter13GetBufferDataEv
00000001000e8a6c T __ZN5ABase19CApolloBufferWriter5WriteERK6AArray
00000001000e8568 T __ZN5ABase19CApolloBufferWriter5WriteERK7AString
00000001000e81b8 T __ZN5ABase19CApolloBufferWriter5WriteEb
00000001000e8148 T __ZN5ABase19CApolloBufferWriter5WriteEi
00000001000e8bec T __ZN5ABase19CApolloBufferWriter5WriteEj
00000001000e88c0 T __ZN5ABase19CApolloBufferWriter5WriteEx
00000001000e86b8 T __ZN5ABase19CApolloBufferWriter5WriteEy
00000001000c7060 T __ZN5ABase20_tagApolloBufferBase6DecodeEPKci
00000001000e4d08 T __ZN5ABase20_tagApolloBufferBaseaSERKS0_
000000010016d8b0 T __ZN5ABase25PerformSelectorOnUIThreadEPNS_11CTargetBaseEMS0_FvPvES2_
00000001001004fc T __ZN5ABase25PerformSelectorOnUIThreadEPNS_11CTargetBaseEMS0_FvPvS2_ES2_S2_
0000000100100b58 T __ZN5ABase25PerformSelectorOnUIThreadEPNS_11CTargetBaseEMS0_FvPvS2_S2_ES2_S2_S2_
00000001000b3880 T __ZN5ABase25PerformSelectorOnUIThreadEPNS_11CTargetBaseEMS0_FvvE
00000001001bbd8c T __ZN5ABase5CTime11GetInstanceEv
00000001000cc4b8 T __ZN5ABase6CMutex4LockEv
00000001000cc4e0 T __ZN5ABase6CMutex6UnlockEv
00000001000b8ab4 T __ZN5ABase7CAtomicIbE3GetEv
00000001000b8220 T __ZN5ABase7CAtomicIbE3SetEb
000000010041cdc8 T __ZN5Ascii10propertiesEi
000000010041cd88 T __ZN5Ascii13hasPropertiesEii
000000010041ce1c T __ZN5Ascii7isAsciiEi
000000010041cd5c T __ZN5Ascii7isUpperEi
000000010041cd18 T __ZN5Ascii7toLowerEi
00000001003e6c38 T __ZN5CTask10GetGapNodeEv
00000001003e4b7c T __ZN5CTask13AddErrorTimesEv
00000001003e4b9c T __ZN5CTask13GetErrorTimesEv
00000001003f6138 T __ZN5CTask21AddDownloadErrorTimesEv
00000001011b507c T __ZN5physx13writeTriangleIjEEvRNS_12MemoryBufferERKNS_2Sn8TriangleIT_EE
00000001011b4eec T __ZN5physx13writeTriangleItEEvRNS_12MemoryBufferERKNS_2Sn8TriangleIT_EE
0000000101661370 T __ZN5physx19getXTorqueCurvePairEPKNS_19PxVehicleEngineDataEj
000000010166137c T __ZN5physx19getYTorqueCurvePairEPKNS_19PxVehicleEngineDataEj
000000010166138c T __ZN5physx20GetNbTorqueCurvePairEPKNS_19PxVehicleEngineDataE
00000001011a3f70 T __ZN5physx21PxJointRepXSerializerINS_12PxFixedJointEE12fileToObjectERNS_9XmlReaderERNS_18XmlMemoryAllocatorERNS_23PxRepXInstantiationArgsEPNS_12PxCollectionE
00000001011a42b8 T __ZN5physx21PxJointRepXSerializerINS_12PxFixedJointEE14allocateObjectERNS_23PxRepXInstantiationArgsE
00000001011a41f4 T __ZN5physx21PxJointRepXSerializerINS_12PxFixedJointEE16objectToFileImplEPKS1_PNS_12PxCollectionERNS_9XmlWriterERNS_12MemoryBufferERNS_23PxRepXInstantiationArgsE
00000001011a42c0 T __ZN5physx21PxJointRepXSerializerINS_15PxDistanceJointEE12fileToObjectERNS_9XmlReaderERNS_18XmlMemoryAllocatorERNS_23PxRepXInstantiationArgsEPNS_12PxCollectionE
00000001011a4608 T __ZN5physx21PxJointRepXSerializerINS_15PxDistanceJointEE14allocateObjectERNS_23PxRepXInstantiationArgsE
00000001011a4544 T __ZN5physx21PxJointRepXSerializerINS_15PxDistanceJointEE16objectToFileImplEPKS1_PNS_12PxCollectionERNS_9XmlWriterERNS_12MemoryBufferERNS_23PxRepXInstantiationArgsE
00000001011a4cb0 T __ZN5physx21PxJointRepXSerializerINS_15PxRevoluteJointEE12fileToObjectERNS_9XmlReaderERNS_18XmlMemoryAllocatorERNS_23PxRepXInstantiationArgsEPNS_12PxCollectionE
00000001011a4ff8 T __ZN5physx21PxJointRepXSerializerINS_15PxRevoluteJointEE14allocateObjectERNS_23PxRepXInstantiationArgsE
00000001011a4f34 T __ZN5physx21PxJointRepXSerializerINS_15PxRevoluteJointEE16objectToFileImplEPKS1_PNS_12PxCollectionERNS_9XmlWriterERNS_12MemoryBufferERNS_23PxRepXInstantiationArgsE
00000001011a4960 T __ZN5physx21PxJointRepXSerializerINS_16PxPrismaticJointEE12fileToObjectERNS_9XmlReaderERNS_18XmlMemoryAllocatorERNS_23PxRepXInstantiationArgsEPNS_12PxCollectionE
00000001011a4ca8 T __ZN5physx21PxJointRepXSerializerINS_16PxPrismaticJointEE14allocateObjectERNS_23PxRepXInstantiationArgsE
00000001011a4be4 T __ZN5physx21PxJointRepXSerializerINS_16PxPrismaticJointEE16objectToFileImplEPKS1_PNS_12PxCollectionERNS_9XmlWriterERNS_12MemoryBufferERNS_23PxRepXInstantiationArgsE
00000001011a5000 T __ZN5physx21PxJointRepXSerializerINS_16PxSphericalJointEE12fileToObjectERNS_9XmlReaderERNS_18XmlMemoryAllocatorERNS_23PxRepXInstantiationArgsEPNS_12PxCollectionE
00000001011a5348 T __ZN5physx21PxJointRepXSerializerINS_16PxSphericalJointEE14allocateObjectERNS_23PxRepXInstantiationArgsE
00000001011a5284 T __ZN5physx21PxJointRepXSerializerINS_16PxSphericalJointEE16objectToFileImplEPKS1_PNS_12PxCollectionERNS_9XmlWriterERNS_12MemoryBufferERNS_23PxRepXInstantiationArgsE
00000001011a4610 T __ZN5physx21PxJointRepXSerializerINS_9PxD6JointEE12fileToObjectERNS_9XmlReaderERNS_18XmlMemoryAllocatorERNS_23PxRepXInstantiationArgsEPNS_12PxCollectionE
00000001011a4958 T __ZN5physx21PxJointRepXSerializerINS_9PxD6JointEE14allocateObjectERNS_23PxRepXInstantiationArgsE
00000001011a4894 T __ZN5physx21PxJointRepXSerializerINS_9PxD6JointEE16objectToFileImplEPKS1_PNS_12PxCollectionERNS_9XmlWriterERNS_12MemoryBufferERNS_23PxRepXInstantiationArgsE
00000001016612f0 T __ZN5physx23GetMFrictionVsSlipGraphEPKNS_17PxVehicleTireDataEjj
0000000101666f5c T __ZN5physx23PxVehicleRepXSerializerINS_16PxVehicleDrive4WEE12fileToObjectERNS_9XmlReaderERNS_18XmlMemoryAllocatorERNS_23PxRepXInstantiationArgsEPNS_12PxCollectionE
0000000101667c14 T __ZN5physx23PxVehicleRepXSerializerINS_16PxVehicleDrive4WEE14allocateObjectERNS_23PxRepXInstantiationArgsE
00000001016678f0 T __ZN5physx23PxVehicleRepXSerializerINS_16PxVehicleDrive4WEE16objectToFileImplEPKS1_PNS_12PxCollectionERNS_9XmlWriterERNS_12MemoryBufferERNS_23PxRepXInstantiationArgsE
00000001016685e8 T __ZN5physx23PxVehicleRepXSerializerINS_16PxVehicleDriveNWEE12fileToObjectERNS_9XmlReaderERNS_18XmlMemoryAllocatorERNS_23PxRepXInstantiationArgsEPNS_12PxCollectionE
0000000101669094 T __ZN5physx23PxVehicleRepXSerializerINS_16PxVehicleDriveNWEE14allocateObjectERNS_23PxRepXInstantiationArgsE
0000000101668d70 T __ZN5physx23PxVehicleRepXSerializerINS_16PxVehicleDriveNWEE16objectToFileImplEPKS1_PNS_12PxCollectionERNS_9XmlWriterERNS_12MemoryBufferERNS_23PxRepXInstantiationArgsE
000000010166909c T __ZN5physx23PxVehicleRepXSerializerINS_16PxVehicleNoDriveEE12fileToObjectERNS_9XmlReaderERNS_18XmlMemoryAllocatorERNS_23PxRepXInstantiationArgsEPNS_12PxCollectionE
0000000101669a00 T __ZN5physx23PxVehicleRepXSerializerINS_16PxVehicleNoDriveEE14allocateObjectERNS_23PxRepXInstantiationArgsE
0000000101669710 T __ZN5physx23PxVehicleRepXSerializerINS_16PxVehicleNoDriveEE16objectToFileImplEPKS1_PNS_12PxCollectionERNS_9XmlWriterERNS_12MemoryBufferERNS_23PxRepXInstantiationArgsE
0000000101667c1c T __ZN5physx23PxVehicleRepXSerializerINS_18PxVehicleDriveTankEE12fileToObjectERNS_9XmlReaderERNS_18XmlMemoryAllocatorERNS_23PxRepXInstantiationArgsEPNS_12PxCollectionE
00000001016685e0 T __ZN5physx23PxVehicleRepXSerializerINS_18PxVehicleDriveTankEE14allocateObjectERNS_23PxRepXInstantiationArgsE
00000001016682bc T __ZN5physx23PxVehicleRepXSerializerINS_18PxVehicleDriveTankEE16objectToFileImplEPKS1_PNS_12PxCollectionERNS_9XmlWriterERNS_12MemoryBufferERNS_23PxRepXInstantiationArgsE
00000001016612e0 T __ZN5physx23SetMFrictionVsSlipGraphEPNS_17PxVehicleTireDataEjjf
00000001011b2fdc T __ZN5physx24PxParticleRepXSerializerINS_15PxParticleFluidEE12fileToObjectERNS_9XmlReaderERNS_18XmlMemoryAllocatorERNS_23PxRepXInstantiationArgsEPNS_12PxCollectionE
00000001011b3930 T __ZN5physx24PxParticleRepXSerializerINS_15PxParticleFluidEE14allocateObjectERNS_23PxRepXInstantiationArgsE
00000001011b2590 T __ZN5physx24PxParticleRepXSerializerINS_15PxParticleFluidEE16objectToFileImplEPKS1_PNS_12PxCollectionERNS_9XmlWriterERNS_12MemoryBufferERNS_23PxRepXInstantiationArgsE
00000001011b1400 T __ZN5physx24PxParticleRepXSerializerINS_16PxParticleSystemEE12fileToObjectERNS_9XmlReaderERNS_18XmlMemoryAllocatorERNS_23PxRepXInstantiationArgsEPNS_12PxCollectionE
00000001011b2588 T __ZN5physx24PxParticleRepXSerializerINS_16PxParticleSystemEE14allocateObjectERNS_23PxRepXInstantiationArgsE
00000001011b0a28 T __ZN5physx24PxParticleRepXSerializerINS_16PxParticleSystemEE16objectToFileImplEPKS1_PNS_12PxCollectionERNS_9XmlWriterERNS_12MemoryBufferERNS_23PxRepXInstantiationArgsE
0000000101691000 T __ZN5physx25PxVehicleConstraintShader19visualiseConstraintERNS_22PxConstraintVisualizerEPKvRKNS_11PxTransformES7_j
0000000101690d38 T __ZN5physx25PxVehicleConstraintShader36vehicleSuspLimitConstraintSolverPrepEPNS_14Px1DConstraintERNS_6PxVec3EjRNS_24PxConstraintInvMassScaleEPKvRKNS_11PxTransformESB_
00000001010fdbc0 T __ZN5physx2Gu13SweepGeomGeomINS0_11ConvexHullVES2_EEfRKNS0_8CCDShapeES5_RKNS_11PxTransformES8_S8_S8_fRNS_6PxVec3ESA_fRjf
00000001010fd220 T __ZN5physx2Gu13SweepGeomGeomINS0_4BoxVENS0_11ConvexHullVEEEfRKNS0_8CCDShapeES6_RKNS_11PxTransformES9_S9_S9_fRNS_6PxVec3ESB_fRjf
00000001010fcbb0 T __ZN5physx2Gu13SweepGeomGeomINS0_4BoxVES2_EEfRKNS0_8CCDShapeES5_RKNS_11PxTransformES8_S8_S8_fRNS_6PxVec3ESA_fRjf
00000001010fc258 T __ZN5physx2Gu13SweepGeomGeomINS0_8CapsuleVENS0_11ConvexHullVEEEfRKNS0_8CCDShapeES6_RKNS_11PxTransformES9_S9_S9_fRNS_6PxVec3ESB_fRjf
00000001010fbc00 T __ZN5physx2Gu13SweepGeomGeomINS0_8CapsuleVENS0_4BoxVEEEfRKNS0_8CCDShapeES6_RKNS_11PxTransformES9_S9_S9_fRNS_6PxVec3ESB_fRjf
00000001010fb5f0 T __ZN5physx2Gu13SweepGeomGeomINS0_8CapsuleVES2_EEfRKNS0_8CCDShapeES5_RKNS_11PxTransformES8_S8_S8_fRNS_6PxVec3ESA_fRjf
00000001010ff430 T __ZN5physx2Gu18SweepGeomTrianglesINS0_11ConvexHullVEEEfRKNS0_13GeometryUnionES5_RKNS_11PxTransformES8_S8_S8_fRNS_6PxVec3ESA_RKNS_2Cm23FastVertex2ShapeScalingERNS0_9TriangleVEf
00000001010fee3c T __ZN5physx2Gu18SweepGeomTrianglesINS0_4BoxVEEEfRKNS0_13GeometryUnionES5_RKNS_11PxTransformES8_S8_S8_fRNS_6PxVec3ESA_RKNS_2Cm23FastVertex2ShapeScalingERNS0_9TriangleVEf
00000001010fe88c T __ZN5physx2Gu18SweepGeomTrianglesINS0_8CapsuleVEEEfRKNS0_13GeometryUnionES5_RKNS_11PxTransformES8_S8_S8_fRNS_6PxVec3ESA_RKNS_2Cm23FastVertex2ShapeScalingERNS0_9TriangleVEf
00000001011d0700 T __ZN5physx2Sn9PtrAccessINS_7PxFlagsINS_14PxParticleFlag4EnumEtEEEERKT_PS7_j
00000001055218f0 D __ZN5physx5cloth11SwCollisionI6Simd4fE14sSkeletonWidthE
0000000101018ccc T __ZN5physx5cloth11SwCollisionI6Simd4fE15collideConvexesERKNS0_14IterationStateIS2_EE
000000010101a73c T __ZN5physx5cloth11SwCollisionI6Simd4fE16collideParticlesEv
00000001010191e0 T __ZN5physx5cloth11SwCollisionI6Simd4fE16collideTrianglesERKNS0_14IterationStateIS2_EE
0000000101019848 T __ZN5physx5cloth11SwCollisionI6Simd4fE17buildAccelerationEv
000000010101a6c0 T __ZN5physx5cloth11SwCollisionI6Simd4fE17mergeAccelerationEPj
000000010101acb0 T __ZN5physx5cloth11SwCollisionI6Simd4fE23collideVirtualParticlesEv
000000010101b6a0 T __ZN5physx5cloth11SwCollisionI6Simd4fE23estimateTemporaryMemoryERKNS0_7SwClothE
000000010101b6c0 T __ZN5physx5cloth11SwCollisionI6Simd4fE24estimatePersistentMemoryERKNS0_7SwClothE
000000010101a314 T __ZN5physx5cloth11SwCollisionI6Simd4fE26collideContinuousParticlesEv
0000000101018a20 T __ZN5physx5cloth11SwCollisionI6Simd4fEC1ERNS0_11SwClothDataER14StackAllocatorILm16EE
000000010101879c T __ZN5physx5cloth11SwCollisionI6Simd4fEC2ERNS0_11SwClothDataER14StackAllocatorILm16EE
0000000101018b08 T __ZN5physx5cloth11SwCollisionI6Simd4fED1Ev
0000000101018a24 T __ZN5physx5cloth11SwCollisionI6Simd4fED2Ev
0000000101018b0c T __ZN5physx5cloth11SwCollisionI6Simd4fEclERKNS0_14IterationStateIS2_EE
00000001010252ec T __ZN5physx5cloth14SwSolverKernelI6Simd4fE11solveFabricEv
00000001010263e8 T __ZN5physx5cloth14SwSolverKernelI6Simd4fE12iterateClothEv
0000000101025bb4 T __ZN5physx5cloth14SwSolverKernelI6Simd4fE15constrainMotionEv
00000001010250a0 T __ZN5physx5cloth14SwSolverKernelI6Simd4fE18integrateParticlesEv
0000000101026040 T __ZN5physx5cloth14SwSolverKernelI6Simd4fE19constrainSeparationEv
000000010102505c T __ZN5physx5cloth14SwSolverKernelI6Simd4fE23estimateTemporaryMemoryERKNS0_7SwClothE
00000001010257bc T __ZN5physx5cloth14SwSolverKernelI6Simd4fE9applyWindEv
0000000101024edc T __ZN5physx5cloth14SwSolverKernelI6Simd4fEC1ERKNS0_7SwClothERNS0_11SwClothDataER14StackAllocatorILm16EERNS0_21IterationStateFactoryE
0000000101024f5c T __ZN5physx5cloth14SwSolverKernelI6Simd4fEclEv
0000000101021b00 T __ZN5physx5cloth15SwSelfCollisionI6Simd4fE23estimateTemporaryMemoryERKNS0_7SwClothE
0000000101020c10 T __ZN5physx5cloth15SwSelfCollisionI6Simd4fEC1ERNS0_11SwClothDataER14StackAllocatorILm16EE
0000000101020c40 T __ZN5physx5cloth15SwSelfCollisionI6Simd4fED1Ev
0000000101020c44 T __ZN5physx5cloth15SwSelfCollisionI6Simd4fEclEv
00000001010203dc T __ZN5physx5cloth16SwInterCollisionI6Simd4fE16collideParticlesEPKjjS5_jj
00000001010209ac T __ZN5physx5cloth16SwInterCollisionI6Simd4fE23estimateTemporaryMemoryEPNS0_20SwInterCollisionDataEj
000000010101ec38 T __ZN5physx5cloth16SwInterCollisionI6Simd4fEC1EPKNS0_20SwInterCollisionDataEjffjPFbPvS7_ER14StackAllocatorILm16EE
000000010101ecf8 T __ZN5physx5cloth16SwInterCollisionI6Simd4fED1Ev
000000010101ecfc T __ZN5physx5cloth16SwInterCollisionI6Simd4fEclEv
0000000101016a2c T __ZN5physx5cloth9ClothImplINS0_7SwClothEE10putToSleepEv
0000000101013508 T __ZN5physx5cloth9ClothImplINS0_7SwClothEE10setDampingERKNS_6PxVec3E
000000010101341c T __ZN5physx5cloth9ClothImplINS0_7SwClothEE10setGravityERKNS_6PxVec3E
0000000101014394 T __ZN5physx5cloth9ClothImplINS0_7SwClothEE10setSpheresENS0_5RangeIKNS_6PxVec4EEEjj
0000000101014894 T __ZN5physx5cloth9ClothImplINS0_7SwClothEE11setCapsulesENS0_5RangeIKjEEjj
0000000101014ffc T __ZN5physx5cloth9ClothImplINS0_7SwClothEE11setConvexesENS0_5RangeIKjEEjj
00000001010159f8 T __ZN5physx5cloth9ClothImplINS0_7SwClothEE11setFrictionEf
000000010101322c T __ZN5physx5cloth9ClothImplINS0_7SwClothEE11setRotationERKNS_6PxQuatE
0000000101016a54 T __ZN5physx5cloth9ClothImplINS0_7SwClothEE11setUserDataEPv
00000001010132f4 T __ZN5physx5cloth9ClothImplINS0_7SwClothEE12clearInertiaEv
00000001010157a8 T __ZN5physx5cloth9ClothImplINS0_7SwClothEE12setTrianglesENS0_5RangeIKNS_6PxVec3EEES7_j
00000001010152a4 T __ZN5physx5cloth9ClothImplINS0_7SwClothEE12setTrianglesENS0_5RangeIKNS_6PxVec3EEEjj
0000000101013830 T __ZN5physx5cloth9ClothImplINS0_7SwClothEE13setLinearDragERKNS_6PxVec3E
0000000101013b58 T __ZN5physx5cloth9ClothImplINS0_7SwClothEE14setAngularDragERKNS_6PxVec3E
0000000101013178 T __ZN5physx5cloth9ClothImplINS0_7SwClothEE14setTranslationERKNS_6PxVec3E
000000010101618c T __ZN5physx5cloth9ClothImplINS0_7SwClothEE15setWindVelocityENS_6PxVec3E
0000000101013e80 T __ZN5physx5cloth9ClothImplINS0_7SwClothEE16setLinearInertiaERKNS_6PxVec3E
0000000101016678 T __ZN5physx5cloth9ClothImplINS0_7SwClothEE16setRestPositionsENS0_5RangeIKNS_6PxVec4EEE
0000000101013f6c T __ZN5physx5cloth9ClothImplINS0_7SwClothEE17setAngularInertiaERKNS_6PxVec3E
0000000101016934 T __ZN5physx5cloth9ClothImplINS0_7SwClothEE17setSleepThresholdEf
0000000101016080 T __ZN5physx5cloth9ClothImplINS0_7SwClothEE18clearInterpolationEv
0000000101016280 T __ZN5physx5cloth9ClothImplINS0_7SwClothEE18setDragCoefficientEf
00000001010163b8 T __ZN5physx5cloth9ClothImplINS0_7SwClothEE18setLiftCoefficientEf
00000001010169b4 T __ZN5physx5cloth9ClothImplINS0_7SwClothEE18setSleepAfterCountEj
0000000101014144 T __ZN5physx5cloth9ClothImplINS0_7SwClothEE18setSolverFrequencyEf
0000000101015ba8 T __ZN5physx5cloth9ClothImplINS0_7SwClothEE20getMotionConstraintsEv
0000000101016974 T __ZN5physx5cloth9ClothImplINS0_7SwClothEE20setSleepTestIntervalEj
0000000101014058 T __ZN5physx5cloth9ClothImplINS0_7SwClothEE21setCentrifugalInertiaERKNS_6PxVec3E
00000001010159c8 T __ZN5physx5cloth9ClothImplINS0_7SwClothEE21setCollisionMassScaleEf
00000001010141f4 T __ZN5physx5cloth9ClothImplINS0_7SwClothEE21setStiffnessFrequencyEf
0000000101015ce0 T __ZN5physx5cloth9ClothImplINS0_7SwClothEE22clearMotionConstraintsEv
0000000101015ee8 T __ZN5physx5cloth9ClothImplINS0_7SwClothEE24getSeparationConstraintsEv
00000001010164f0 T __ZN5physx5cloth9ClothImplINS0_7SwClothEE24setSelfCollisionDistanceEf
0000000101015a30 T __ZN5physx5cloth9ClothImplINS0_7SwClothEE24setTetherConstraintScaleEf
0000000101015988 T __ZN5physx5cloth9ClothImplINS0_7SwClothEE25enableContinuousCollisionEb
0000000101014234 T __ZN5physx5cloth9ClothImplINS0_7SwClothEE25setAcceleationFilterWidthEj
0000000101016530 T __ZN5physx5cloth9ClothImplINS0_7SwClothEE25setSelfCollisionStiffnessEf
0000000101016020 T __ZN5physx5cloth9ClothImplINS0_7SwClothEE26clearSeparationConstraintsEv
0000000101015d40 T __ZN5physx5cloth9ClothImplINS0_7SwClothEE28setMotionConstraintScaleBiasEff
0000000101015db0 T __ZN5physx5cloth9ClothImplINS0_7SwClothEE28setMotionConstraintStiffnessEf
0000000101015a70 T __ZN5physx5cloth9ClothImplINS0_7SwClothEE28setTetherConstraintStiffnessEf
0000000101016a44 T __ZN5physx5cloth9ClothImplINS0_7SwClothEE6wakeUpEv
0000000101013354 T __ZN5physx5cloth9ClothImplINS0_7SwClothEE8teleportERKNS_6PxVec3E
0000000101014ac4 T __ZN5physx5cloth9ClothImplINS0_7SwClothEE9setPlanesENS0_5RangeIKNS_6PxVec4EEEjj
0000000101013100 T __ZN5physx5cloth9ClothImplINS0_7SwClothEEC1ERNS0_7FactoryERKS3_
00000001010130b8 T __ZN5physx5cloth9ClothImplINS0_7SwClothEEC1ERNS0_7FactoryERNS0_6FabricENS0_5RangeIKNS_6PxVec4EEE
000000010124e5b4 T __ZN5physx6pvdsdk14PvdMarshallingIadE12marshalBlockEPKhPhj
000000010124e594 T __ZN5physx6pvdsdk14PvdMarshallingIafE12marshalBlockEPKhPhj
000000010124e524 T __ZN5physx6pvdsdk14PvdMarshallingIaiE12marshalBlockEPKhPhj
000000010124e540 T __ZN5physx6pvdsdk14PvdMarshallingIajE12marshalBlockEPKhPhj
000000010124e4ec T __ZN5physx6pvdsdk14PvdMarshallingIasE12marshalBlockEPKhPhj
000000010124e508 T __ZN5physx6pvdsdk14PvdMarshallingIatE12marshalBlockEPKhPhj
000000010124e55c T __ZN5physx6pvdsdk14PvdMarshallingIaxE12marshalBlockEPKhPhj
000000010124e578 T __ZN5physx6pvdsdk14PvdMarshallingIayE12marshalBlockEPKhPhj
000000010124e9ac T __ZN5physx6pvdsdk14PvdMarshallingIdxE12marshalBlockEPKhPhj
000000010124e9cc T __ZN5physx6pvdsdk14PvdMarshallingIdyE12marshalBlockEPKhPhj
000000010124e98c T __ZN5physx6pvdsdk14PvdMarshallingIfdE12marshalBlockEPKhPhj
000000010124e94c T __ZN5physx6pvdsdk14PvdMarshallingIfiE12marshalBlockEPKhPhj
000000010124e96c T __ZN5physx6pvdsdk14PvdMarshallingIfjE12marshalBlockEPKhPhj
000000010124e69c T __ZN5physx6pvdsdk14PvdMarshallingIhdE12marshalBlockEPKhPhj
000000010124e67c T __ZN5physx6pvdsdk14PvdMarshallingIhfE12marshalBlockEPKhPhj
000000010124e60c T __ZN5physx6pvdsdk14PvdMarshallingIhiE12marshalBlockEPKhPhj
000000010124e628 T __ZN5physx6pvdsdk14PvdMarshallingIhjE12marshalBlockEPKhPhj
000000010124e5d4 T __ZN5physx6pvdsdk14PvdMarshallingIhsE12marshalBlockEPKhPhj
000000010124e5f0 T __ZN5physx6pvdsdk14PvdMarshallingIhtE12marshalBlockEPKhPhj
000000010124e644 T __ZN5physx6pvdsdk14PvdMarshallingIhxE12marshalBlockEPKhPhj
000000010124e660 T __ZN5physx6pvdsdk14PvdMarshallingIhyE12marshalBlockEPKhPhj
000000010124e874 T __ZN5physx6pvdsdk14PvdMarshallingIidE12marshalBlockEPKhPhj
000000010124e854 T __ZN5physx6pvdsdk14PvdMarshallingIifE12marshalBlockEPKhPhj
000000010124e81c T __ZN5physx6pvdsdk14PvdMarshallingIixE12marshalBlockEPKhPhj
000000010124e838 T __ZN5physx6pvdsdk14PvdMarshallingIiyE12marshalBlockEPKhPhj
000000010124e8ec T __ZN5physx6pvdsdk14PvdMarshallingIjdE12marshalBlockEPKhPhj
000000010124e8cc T __ZN5physx6pvdsdk14PvdMarshallingIjfE12marshalBlockEPKhPhj
000000010124e894 T __ZN5physx6pvdsdk14PvdMarshallingIjxE12marshalBlockEPKhPhj
000000010124e8b0 T __ZN5physx6pvdsdk14PvdMarshallingIjyE12marshalBlockEPKhPhj
000000010124e74c T __ZN5physx6pvdsdk14PvdMarshallingIsdE12marshalBlockEPKhPhj
000000010124e72c T __ZN5physx6pvdsdk14PvdMarshallingIsfE12marshalBlockEPKhPhj
000000010124e6bc T __ZN5physx6pvdsdk14PvdMarshallingIsiE12marshalBlockEPKhPhj
000000010124e6d8 T __ZN5physx6pvdsdk14PvdMarshallingIsjE12marshalBlockEPKhPhj
000000010124e6f4 T __ZN5physx6pvdsdk14PvdMarshallingIsxE12marshalBlockEPKhPhj
000000010124e710 T __ZN5physx6pvdsdk14PvdMarshallingIsyE12marshalBlockEPKhPhj
000000010124e7fc T __ZN5physx6pvdsdk14PvdMarshallingItdE12marshalBlockEPKhPhj
000000010124e7dc T __ZN5physx6pvdsdk14PvdMarshallingItfE12marshalBlockEPKhPhj
000000010124e76c T __ZN5physx6pvdsdk14PvdMarshallingItiE12marshalBlockEPKhPhj
000000010124e788 T __ZN5physx6pvdsdk14PvdMarshallingItjE12marshalBlockEPKhPhj
000000010124e7a4 T __ZN5physx6pvdsdk14PvdMarshallingItxE12marshalBlockEPKhPhj
000000010124e7c0 T __ZN5physx6pvdsdk14PvdMarshallingItyE12marshalBlockEPKhPhj
000000010124e90c T __ZN5physx6pvdsdk14PvdMarshallingIxdE12marshalBlockEPKhPhj
000000010124e92c T __ZN5physx6pvdsdk14PvdMarshallingIydE12marshalBlockEPKhPhj
00000001000af1d8 T __ZN6GCloud11AccountInfo5ResetEv
00000001000fb278 T __ZN6GCloud11AccountInfo8SetTokenEiPKcx
00000001000e6658 T __ZN6GCloud11AccountInfoaSERKS0_
00000001000be23c T __ZN6GCloud11CRingBuffer5EmptyEv
00000001000fcc48 T __ZN6GCloud11CRingBuffer7DequeueER7AString
00000001000bfd48 T __ZN6GCloud11CRingBuffer7EnqueueEPKci
00000001000e67d0 T __ZN6GCloud11WaitingInfoaSERKS0_
0000000100199998 T __ZN6GCloud12AddressCache9CacheItem6UpdateERKNSt3__16vectorINS2_12basic_stringIcNS2_11char_traitsIcEENS2_9allocatorIcEEEENS7_IS9_EEEE
000000010019a920 T __ZN6GCloud12AddressCache9CacheItem9IsExpiredEi
0000000100342c6c T __ZN6GCloud13CGCloudCommon13GetRpcTimeoutEv
00000001000e4b74 T __ZN6GCloud13CGCloudCommon13SetLaunchTickEx
000000010017e680 T __ZN6GCloud13CGCloudCommon20GetRpcConnectTimeoutEv
0000000100342c84 T __ZN6GCloud13CGCloudCommon20GetRpcRetryIncrementEv
00000001001bb8ec T __ZN6GCloud13CGCloudCommon21GetNetworkAnalysisUrlEv
00000001001bb8d4 T __ZN6GCloud13CGCloudCommon22GetNetworkAnalysisModeEv
00000001001738b8 T __ZN6GCloud13CGCloudCommon24GetRpcAddressSvrPortListEv
00000001000e6b5c T __ZN6GCloud13ConnectedInfoaSERKS0_
00000001000e6a6c T __ZN6GCloud13NameRouteInfoaSERKS0_
00000001000e8428 T __ZN6GCloud13RouteInfoBaseaSERKS0_
00000001000c4c3c T __ZN6GCloud13_tagApoResultaSERKS0_
00000001000e4ae4 T __ZN6GCloud14InitializeInfoaSERKS0_
00000001000be2bc T __ZN6GCloud14lock_buf_queue3popER7AString
0000000100220368 T __ZN6GCloud14lock_buf_queue4pushERK7AString
00000001002202dc T __ZN6GCloud14lock_buf_queue8has_dataEv
00000001000e848c T __ZN6GCloud15ServerRouteInfoaSERKS0_
00000001000aea40 T __ZN6GCloud16GetGCloudServiceIPNS_15IAccountServiceEEET_i
00000001000aecec T __ZN6GCloud16GetGCloudServiceIPNS_8IServiceEEET_i
00000001000c48ac T __ZN6GCloud16_tagIPCollectionaSERKS0_
000000010016bd94 T __ZN6GCloud18GCloudLifeRecorder9StageInfo6UpdateENS_15GCloudLifeStageE
00000001000b0248 T __ZN6GCloud21_tagConnectorInitInfo12GetRouteInfoEv
00000001000b0134 T __ZN6GCloud21_tagConnectorInitInfoaSERKS0_
00000001000f77b0 T __ZN6GCloud3Gcp7igcpapi12SetRouteInfoERKNS_4Conn13RouteInfoBaseE
00000001000fd21c T __ZN6GCloud3Gcp7igcpapi13SetClientTypeENS_4Conn10ClientTypeE
00000001000fd2ac T __ZN6GCloud3Gcp7igcpapi16SetSynReserveIntEj
00000001000fd178 T __ZN6GCloud3Gcp7igcpapi18SetProtocolVersionEii
00000001000fd7ac T __ZN6GCloud3Gcp9QueueInfo5ClearEv
0000000100103a4c T __ZN6GCloud4Conn14InitializeInfoaSERKS1_
00000001000fbe44 T __ZN6GCloud4Conn15ConnectorResult5ResetENS0_10EErrorCodeEPKc
00000001000f782c T __ZN6GCloud4Conn15ConnectorResult5ResetENS0_10EErrorCodeEiPKc
00000001000f7b38 T __ZN6GCloud4Conn15ConnectorResult5ResetENS0_10EErrorCodeEiiPKc
00000001000f4c00 T __ZN6GCloud4Conn15ConnectorResult7SuccessEv
00000001000fd708 T __ZN6GCloud4Conn15ConnectorResultaSERKS1_
0000000100102718 T __ZN6GCloud4Conn15GInitializeInfoaSERKS1_
0000000100103f30 T __ZN6GCloud4Conn15TInitializeInfoaSERKS1_
00000001000fd0e4 T __ZN6GCloud4Conn9Connector10IsFinalizeEv
00000001000f666c T __ZN6GCloud4Conn9Connector12actionStringENS1_6ActionE
00000001001021d0 T __ZN6GCloud4Conn9Connector14IsManualUpdateEv
00000001001021ec T __ZN6GCloud4Conn9Connector8FinalizeEv
00000001000e6550 T __ZN6GCloud5TokenaSERKS0_
000000010551c860 D __ZN6GCloud6Plugin9SingletonIN6TssSDK12PluginTssSDKEE11m_pInstanceE
00000001053882d0 D __ZN6GCloud6Plugin9SingletonINS0_12PluginReportEE11m_pInstanceE
00000001000fbdcc T __ZN6GCloud6Result5ResetEiPKc
00000001000e6dfc T __ZN6GCloud6ResultaSERKS0_
00000001000e6cac T __ZN6GCloud8UserInfoaSERKS0_
00000001000e3f08 T __ZN6GCloud9CBufQueue6GetLenEPc
00000001000e42dc T __ZN6GCloud9CBufQueue6SetLenEPci
00000001000cf840 T __ZN6apollo10cmn_sock_t18GetLastErrorStringEv
00000001000cfb6c T __ZN6apollo10cmn_sock_t6createEPKc
000000010016a1cc T __ZN6apollo10cmn_sock_t6handleEv
0000000100160da8 T __ZN6apollo11lxaddr_inof4hashEv
000000010014f4e4 T __ZN6apollo11lxaddr_inof5resetEv
000000010016a1e4 T __ZN6apollo14cmn_udp_socket7connectEPNS_18tag_inet_addr_infoE
00000001000d3130 T __ZN6apollo15cmn_auto_buff_t10begin_withEPKc
00000001000d266c T __ZN6apollo15cmn_auto_buff_t4tailEv
00000001000d2aa8 T __ZN6apollo15cmn_auto_buff_t5resetEv
00000001000d260c T __ZN6apollo15cmn_auto_buff_t6remainEv
00000001000d2930 T __ZN6apollo15cmn_auto_buff_t7str_lenEv
00000001000d30e0 T __ZN6apollo15cmn_auto_buff_t9scanf_intEv
00000001000d310c T __ZN6apollo15cmn_auto_buff_tcvPKcEv
00000001000d1ee8 T __ZN6apollo15cmn_timer_new_i7wait_msEiP5cu_cs
00000001001561f4 T __ZN6apollo18tag_inet_addr_info13get_ipv4_addrEv
00000001000ce210 T __ZN6apollo18tag_inet_addr_info21addr_from_domain_nameEPKcS2_bPi
0000000100160d84 T __ZN6apollo18tag_inet_addr_info4hashEv
00000001000ce854 T __ZN6apollo18tag_inet_addr_info5resetEv
0000000100154658 T __ZN6apollo18tag_inet_addr_info8get_portEv
00000001000d1094 T __ZN6apollo18tag_inet_addr_info9g_gettickEv
00000001000cee94 T __ZN6apollo19cmn_socket_poller_t10add_socketEPNS_10cmn_sock_tE
00000001000d1d54 T __ZN6apollo9cmn_timer10GetTimeOutEv
000000010014d850 T __ZN6apollo9cmn_timer10SetTimeOutEj
00000001003d17cc T __ZN6apollo9tagipinfoaSERKS0_
0000000100124714 T __ZN6gcloud13tgcpapi_inner11ResetBufferEPNS0_22tagGCloudTGCPApiHandleE
0000000100126f64 T __ZN6gcloud13tgcpapi_inner22tgcpapi_popup_next_pkgEPNS0_22tagGCloudTGCPApiHandleE
0000000100124770 T __ZN6gcloud13tgcpapi_inner23tgcpapi_ready_for_relayEPNS0_22tagGCloudTGCPApiHandleE
000000010012593c T __ZN6gcloud13tgcpapi_inner24tgcpapi_build_frame_baseEPNS0_22tagGCloudTGCPApiHandleEPN10gcloud_gcp8TGCPHeadEt
00000001001c2768 T __ZN6pebble3rpc10ConnectCfgaSERKS1_
00000001001c7088 T __ZN6pebble3rpc12RpcConnector10CobSessionaSERKS2_
0000000100269050 T __ZN6pebble3rpc12RpcConnector11GenSequenceEv
00000001001c573c T __ZN6pebble3rpc12RpcConnector11GetSequenceEv
00000001001ddc30 T __ZN6pebble3rpc12RpcConnector6LBInfoaSERKS2_
000000010026598c T __ZN6pebble3rpc13TEnumIteratorneERKS1_
0000000100265abc T __ZN6pebble3rpc13TEnumIteratorppEv
000000010017e720 T __ZN6pebble3rpc14AddressService11GetSequenceEv
000000010017f170 T __ZN6pebble3rpc14AddressService12QuerySessionaSERKS2_
00000001001844c8 T __ZN6pebble3rpc14AddressService18AddrServiceAddressaSERKS2_
00000001001c93b8 T __ZN6pebble3rpc21TApplicationException7getTypeEv
00000001001afdd8 T __ZN6pebble3rpc8protocol13TJSONProtocol15LookaheadReader12setTransportEPNS0_9transport10TTransportE
00000001001a8ca0 T __ZN6pebble3rpc8protocol13TJSONProtocol15LookaheadReader4peekEv
00000001001a7bc0 T __ZN6pebble3rpc8protocol13TJSONProtocol15LookaheadReader4readEv
00000001001a1580 T __ZN6pebble3rpc8protocol13TJSONProtocol15LookaheadReader5resetEv
00000001001ac6f0 T __ZN6pebble3rpc8protocol13TJSONProtocol15readJSONIntegerIbEEjRT_
00000001001ad8b0 T __ZN6pebble3rpc8protocol13TJSONProtocol15readJSONIntegerIiEEjRT_
00000001001acfe8 T __ZN6pebble3rpc8protocol13TJSONProtocol15readJSONIntegerIsEEjRT_
00000001001ae14c T __ZN6pebble3rpc8protocol13TJSONProtocol15readJSONIntegerIxEEjRT_
00000001001aad9c T __ZN6pebble3rpc8protocol13TJSONProtocol15readJSONIntegerIyEEjRT_
00000001001a3ec4 T __ZN6pebble3rpc8protocol13TJSONProtocol16writeJSONIntegerINS1_12TMessageTypeEEEjT_
00000001001a5774 T __ZN6pebble3rpc8protocol13TJSONProtocol16writeJSONIntegerIbEEjT_
00000001001a69cc T __ZN6pebble3rpc8protocol13TJSONProtocol16writeJSONIntegerIiEEjT_
00000001001a35e0 T __ZN6pebble3rpc8protocol13TJSONProtocol16writeJSONIntegerIjEEjT_
00000001001a608c T __ZN6pebble3rpc8protocol13TJSONProtocol16writeJSONIntegerIsEEjT_
00000001001a47a8 T __ZN6pebble3rpc8protocol13TJSONProtocol16writeJSONIntegerIxEEjT_
000000010018b814 T __ZN6pebble3rpc8protocol16TBinaryProtocolTINS0_9transport10TTransportEE10readBinaryERNSt3__112basic_stringIcNS6_11char_traitsIcEENS6_9allocatorIcEEEE
000000010018b75c T __ZN6pebble3rpc8protocol16TBinaryProtocolTINS0_9transport10TTransportEE10readDoubleERd
000000010018b34c T __ZN6pebble3rpc8protocol16TBinaryProtocolTINS0_9transport10TTransportEE10readMapEndEv
000000010018b63c T __ZN6pebble3rpc8protocol16TBinaryProtocolTINS0_9transport10TTransportEE10readSetEndEv
000000010018a9f4 T __ZN6pebble3rpc8protocol16TBinaryProtocolTINS0_9transport10TTransportEE10readStringINSt3__112basic_stringIcNS7_11char_traitsIcEENS7_9allocatorIcEEEEEEjRT_
000000010018b4c4 T __ZN6pebble3rpc8protocol16TBinaryProtocolTINS0_9transport10TTransportEE11readListEndEv
000000010018a598 T __ZN6pebble3rpc8protocol16TBinaryProtocolTINS0_9transport10TTransportEE11writeBinaryERKNSt3__112basic_stringIcNS6_11char_traitsIcEENS6_9allocatorIcEEEE
000000010018a4e0 T __ZN6pebble3rpc8protocol16TBinaryProtocolTINS0_9transport10TTransportEE11writeDoubleEd
000000010018a370 T __ZN6pebble3rpc8protocol16TBinaryProtocolTINS0_9transport10TTransportEE11writeMapEndEv
000000010018a468 T __ZN6pebble3rpc8protocol16TBinaryProtocolTINS0_9transport10TTransportEE11writeSetEndEv
0000000100189944 T __ZN6pebble3rpc8protocol16TBinaryProtocolTINS0_9transport10TTransportEE11writeStringINSt3__112basic_stringIcNS7_11char_traitsIcEENS7_9allocatorIcEEEEEEjRKT_
000000010018b1ac T __ZN6pebble3rpc8protocol16TBinaryProtocolTINS0_9transport10TTransportEE12readFieldEndEv
000000010018b1c4 T __ZN6pebble3rpc8protocol16TBinaryProtocolTINS0_9transport10TTransportEE12readMapBeginERNS1_5TTypeES7_Rj
000000010018b4dc T __ZN6pebble3rpc8protocol16TBinaryProtocolTINS0_9transport10TTransportEE12readSetBeginERNS1_5TTypeERj
000000010018a3ec T __ZN6pebble3rpc8protocol16TBinaryProtocolTINS0_9transport10TTransportEE12writeListEndEv
000000010018b364 T __ZN6pebble3rpc8protocol16TBinaryProtocolTINS0_9transport10TTransportEE13readListBeginERNS1_5TTypeERj
000000010018b090 T __ZN6pebble3rpc8protocol16TBinaryProtocolTINS0_9transport10TTransportEE13readStructEndEv
000000010018a29c T __ZN6pebble3rpc8protocol16TBinaryProtocolTINS0_9transport10TTransportEE13writeFieldEndEv
000000010018a2e0 T __ZN6pebble3rpc8protocol16TBinaryProtocolTINS0_9transport10TTransportEE13writeMapBeginENS1_5TTypeES6_j
000000010018a404 T __ZN6pebble3rpc8protocol16TBinaryProtocolTINS0_9transport10TTransportEE13writeSetBeginENS1_5TTypeEj
000000010018b0a8 T __ZN6pebble3rpc8protocol16TBinaryProtocolTINS0_9transport10TTransportEE14readFieldBeginERNSt3__112basic_stringIcNS6_11char_traitsIcEENS6_9allocatorIcEEEERNS1_5TTypeERs
000000010018b02c T __ZN6pebble3rpc8protocol16TBinaryProtocolTINS0_9transport10TTransportEE14readMessageEndEv
000000010018aae4 T __ZN6pebble3rpc8protocol16TBinaryProtocolTINS0_9transport10TTransportEE14readStringBodyINSt3__112basic_stringIcNS7_11char_traitsIcEENS7_9allocatorIcEEEEEEjRT_i
000000010018a2b4 T __ZN6pebble3rpc8protocol16TBinaryProtocolTINS0_9transport10TTransportEE14writeFieldStopEv
000000010018a388 T __ZN6pebble3rpc8protocol16TBinaryProtocolTINS0_9transport10TTransportEE14writeListBeginENS1_5TTypeEj
000000010018a184 T __ZN6pebble3rpc8protocol16TBinaryProtocolTINS0_9transport10TTransportEE14writeStructEndEv
000000010018b044 T __ZN6pebble3rpc8protocol16TBinaryProtocolTINS0_9transport10TTransportEE15readStructBeginERNSt3__112basic_stringIcNS6_11char_traitsIcEENS6_9allocatorIcEEEE
000000010018a19c T __ZN6pebble3rpc8protocol16TBinaryProtocolTINS0_9transport10TTransportEE15writeFieldBeginEPKcNS1_5TTypeEs
000000010018a150 T __ZN6pebble3rpc8protocol16TBinaryProtocolTINS0_9transport10TTransportEE15writeMessageEndEv
000000010018a5c4 T __ZN6pebble3rpc8protocol16TBinaryProtocolTINS0_9transport10TTransportEE16readMessageBeginERNSt3__112basic_stringIcNS6_11char_traitsIcEENS6_9allocatorIcEEEERNS1_12TMessageTypeERx
000000010018a168 T __ZN6pebble3rpc8protocol16TBinaryProtocolTINS0_9transport10TTransportEE16writeStructBeginEPKc
00000001001897e8 T __ZN6pebble3rpc8protocol16TBinaryProtocolTINS0_9transport10TTransportEE17writeMessageBeginERKNSt3__112basic_stringIcNS6_11char_traitsIcEENS6_9allocatorIcEEEENS1_12TMessageTypeEx
000000010018b144 T __ZN6pebble3rpc8protocol16TBinaryProtocolTINS0_9transport10TTransportEE7readI16ERs
000000010018a94c T __ZN6pebble3rpc8protocol16TBinaryProtocolTINS0_9transport10TTransportEE7readI32ERi
000000010018aa50 T __ZN6pebble3rpc8protocol16TBinaryProtocolTINS0_9transport10TTransportEE7readI64ERx
000000010018b654 T __ZN6pebble3rpc8protocol16TBinaryProtocolTINS0_9transport10TTransportEE8readBoolERb
000000010018aea4 T __ZN6pebble3rpc8protocol16TBinaryProtocolTINS0_9transport10TTransportEE8readByteERa
000000010018a214 T __ZN6pebble3rpc8protocol16TBinaryProtocolTINS0_9transport10TTransportEE8writeI16Es
00000001001898e4 T __ZN6pebble3rpc8protocol16TBinaryProtocolTINS0_9transport10TTransportEE8writeI32Ei
0000000100189c04 T __ZN6pebble3rpc8protocol16TBinaryProtocolTINS0_9transport10TTransportEE8writeI64Ex
000000010018a480 T __ZN6pebble3rpc8protocol16TBinaryProtocolTINS0_9transport10TTransportEE9writeBoolEb
0000000100189c90 T __ZN6pebble3rpc8protocol16TBinaryProtocolTINS0_9transport10TTransportEE9writeByteEa
00000001001b423c T __ZN6pebble3rpc8protocol16TVirtualProtocolINS1_13TJSONProtocolENS1_17TProtocolDefaultsEE4skipENS1_5TTypeE
00000001001b419c T __ZN6pebble3rpc8protocol16TVirtualProtocolINS1_13TJSONProtocolENS1_17TProtocolDefaultsEE8readBoolENSt3__115__bit_referenceINS6_6vectorIbNS6_9allocatorIbEEEELb1EEE
000000010018b840 T __ZN6pebble3rpc8protocol16TVirtualProtocolINS1_16TBinaryProtocolTINS0_9transport10TTransportEEENS1_17TProtocolDefaultsEE4skipENS1_5TTypeE
000000010018b6bc T __ZN6pebble3rpc8protocol16TVirtualProtocolINS1_16TBinaryProtocolTINS0_9transport10TTransportEEENS1_17TProtocolDefaultsEE8readBoolENSt3__115__bit_referenceINS9_6vectorIbNS9_9allocatorIbEEEELb1EEE
00000001001b4270 T __ZN6pebble3rpc8protocol4skipINS1_13TJSONProtocolEEEjRT_NS1_5TTypeE
000000010018b874 T __ZN6pebble3rpc8protocol4skipINS1_16TBinaryProtocolTINS0_9transport10TTransportEEEEEjRT_NS1_5TTypeE
0000000100188cf0 T __ZN6pebble3rpc8protocol4skipINS1_9TProtocolEEEjRT_NS1_5TTypeE
0000000100189448 T __ZN6pebble3rpc8protocol9TProtocol10readBinaryERNSt3__112basic_stringIcNS3_11char_traitsIcEENS3_9allocatorIcEEEE
0000000100189408 T __ZN6pebble3rpc8protocol9TProtocol10readDoubleERd
00000001001895d0 T __ZN6pebble3rpc8protocol9TProtocol10readMapEndEv
0000000100189648 T __ZN6pebble3rpc8protocol9TProtocol10readSetEndEv
0000000100263ac0 T __ZN6pebble3rpc8protocol9TProtocol10readStringERNSt3__112basic_stringIcNS3_11char_traitsIcEENS3_9allocatorIcEEEE
00000001001896c0 T __ZN6pebble3rpc8protocol9TProtocol11readListEndEv
0000000100263f0c T __ZN6pebble3rpc8protocol9TProtocol11writeStringERKNSt3__112basic_stringIcNS3_11char_traitsIcEENS3_9allocatorIcEEEE
0000000100189520 T __ZN6pebble3rpc8protocol9TProtocol12readFieldEndEv
0000000100189578 T __ZN6pebble3rpc8protocol9TProtocol12readMapBeginERNS1_5TTypeES4_Rj
00000001001895fc T __ZN6pebble3rpc8protocol9TProtocol12readSetBeginERNS1_5TTypeERj
0000000100189674 T __ZN6pebble3rpc8protocol9TProtocol13readListBeginERNS1_5TTypeERj
000000010018954c T __ZN6pebble3rpc8protocol9TProtocol13readStructEndEv
0000000100263ea0 T __ZN6pebble3rpc8protocol9TProtocol13writeFieldEndEv
00000001001894c8 T __ZN6pebble3rpc8protocol9TProtocol14readFieldBeginERNSt3__112basic_stringIcNS3_11char_traitsIcEENS3_9allocatorIcEEEERNS1_5TTypeERs
000000010018062c T __ZN6pebble3rpc8protocol9TProtocol14readMessageEndEv
0000000100263f4c T __ZN6pebble3rpc8protocol9TProtocol14writeFieldStopEv
0000000100263f78 T __ZN6pebble3rpc8protocol9TProtocol14writeStructEndEv
0000000100189488 T __ZN6pebble3rpc8protocol9TProtocol15readStructBeginERNSt3__112basic_stringIcNS3_11char_traitsIcEENS3_9allocatorIcEEEE
0000000100263e18 T __ZN6pebble3rpc8protocol9TProtocol15writeFieldBeginEPKcNS1_5TTypeEs
0000000100180554 T __ZN6pebble3rpc8protocol9TProtocol15writeMessageEndEv
000000010017f1ec T __ZN6pebble3rpc8protocol9TProtocol16readMessageBeginERNSt3__112basic_stringIcNS3_11char_traitsIcEENS3_9allocatorIcEEEERNS1_12TMessageTypeERx
0000000100263dd8 T __ZN6pebble3rpc8protocol9TProtocol16writeStructBeginEPKc
00000001001804cc T __ZN6pebble3rpc8protocol9TProtocol17writeMessageBeginEPKcNS1_12TMessageTypeEx
0000000100263fa4 T __ZN6pebble3rpc8protocol9TProtocol23decrementRecursionDepthEv
0000000100263d40 T __ZN6pebble3rpc8protocol9TProtocol23incrementRecursionDepthEv
00000001001c96b0 T __ZN6pebble3rpc8protocol9TProtocol4skipENS1_5TTypeE
0000000100189348 T __ZN6pebble3rpc8protocol9TProtocol7readI16ERs
0000000100189388 T __ZN6pebble3rpc8protocol9TProtocol7readI32ERi
00000001001893c8 T __ZN6pebble3rpc8protocol9TProtocol7readI64ERx
00000001001892c8 T __ZN6pebble3rpc8protocol9TProtocol8readBoolERb
0000000100189308 T __ZN6pebble3rpc8protocol9TProtocol8readByteERa
0000000100263e6c T __ZN6pebble3rpc8protocol9TProtocol8writeI32Ei
0000000100263ecc T __ZN6pebble3rpc8protocol9TProtocol8writeI64Ex
00000001001c9490 T __ZN6pebble3rpc9processor15TAsyncProcessor7processENSt3__18functionIFvbEEENS3_10shared_ptrINS0_8protocol9TProtocolEEERKNS3_12basic_stringIcNS3_11char_traitsIcEENS3_9allocatorIcEEEEx
00000001001864f0 T __ZN6pebble3rpc9transport10TTransport4readEPhj
0000000100189cf8 T __ZN6pebble3rpc9transport10TTransport5writeEPKhj
000000010018afac T __ZN6pebble3rpc9transport10TTransport6borrowEPhPj
000000010018aff8 T __ZN6pebble3rpc9transport10TTransport7consumeEj
000000010018af00 T __ZN6pebble3rpc9transport10TTransport7readAllEPhj
0000000100186af0 T __ZN6pebble3rpc9transport11TBufferBase4readEPhj
0000000100186c60 T __ZN6pebble3rpc9transport11TBufferBase5writeEPKhj
0000000100186cf4 T __ZN6pebble3rpc9transport11TBufferBase6borrowEPhPj
0000000100186d8c T __ZN6pebble3rpc9transport11TBufferBase7consumeEj
0000000100186b94 T __ZN6pebble3rpc9transport11TBufferBase7readAllEPhj
0000000100186688 T __ZN6pebble3rpc9transport13TMemoryBuffer10initCommonEPhjbj
00000001001b688c T __ZN6pebble3rpc9transport13TMemoryBuffer11resetBufferEPhjNS2_12MemoryPolicyE
00000001001b5794 T __ZN6pebble3rpc9transport13TMemoryBuffer11resetBufferEv
00000001001b7754 T __ZN6pebble3rpc9transport13TMemoryBuffer4swapERS2_
0000000100186f18 T __ZN6pebble3rpc9transport13TMemoryBuffer7readAllEPhj
00000001001b60f8 T __ZN6pebble3rpc9transport13TMemoryBuffer9getBufferEPPhPj
0000000100186538 T __ZN6pebble3rpc9transport18TTransportDefaults6borrowEPhPj
000000010018656c T __ZN6pebble3rpc9transport18TTransportDefaults7consumeEj
00000001001864bc T __ZN6pebble3rpc9transport7readAllINS1_10TTransportEEEjRT_Phj
0000000100186c2c T __ZN6pebble3rpc9transport7readAllINS1_11TBufferBaseEEEjRT_Phj
00000001001b6438 T __ZN6pebble3rpc9transport9MsgBuffer7MessageaSERKS3_
00000001002678b4 T __ZN6puffer25PufferUpdateServiceClient11setProtocolENSt3__110shared_ptrIN6pebble3rpc8protocol9TProtocolEEE
00000001002690dc T __ZN6puffer25PufferUpdateServiceClient11setProtocolENSt3__110shared_ptrIN6pebble3rpc8protocol9TProtocolEEES7_
00000001000e4d50 T __ZN7AObjectaSERKS_
00000001002ce88c T __ZN7CBufMgr10ReleaseBufEP4CBuf
00000001002bf388 T __ZN7CBufMgr10getFullBufERNSt3__14listIP4CBufNS0_9allocatorIS3_EEEE
00000001002ce67c T __ZN7CBufMgr10insertItemEP4CBuf
00000001002bfe30 T __ZN7CBufMgr12clearFullBufEv
00000001002bf33c T __ZN7CBufMgr12isHasFullBufEv
00000001002c007c T __ZN7CBufMgr15getlastpiecebufERxS0_
00000001002c0028 T __ZN7CBufMgr16lastpicecbuffullEv
00000001002f7fb0 T __ZN7CBufMgr16setlastpicecinfoExx
00000001002bedf0 T __ZN7CBufMgr5writeExPcj
00000001002ce4cc T __ZN7CBufMgr6GetBufEv
00000001002f8498 T __ZN7CBufMgr6setEndEx
00000001003dde8c T __ZN7CReport13SetBusinessIDEi
00000001003dde04 T __ZN7CReport6SetUinEPc
00000001003f7108 T __ZN7GapNode11SetDownloadEP12HttpDownload
00000001003d94b0 T __ZN7GapNode7SetNextEPS_
00000001002898b0 T __ZN7cu_Json13ValueIteratorppEi
0000000100289ae4 T __ZN7cu_Json13ValueIteratorppEv
00000001003fda14 T __ZN7cu_iterIP13PRIORITYELMNTE7_MynodeEv
00000001003fdb74 T __ZN7cu_iterIP13PRIORITYELMNTEaSERKS2_
00000001003fdf74 T __ZN7cu_iterIP13PRIORITYELMNTEmmEv
00000001003ff948 T __ZN7cu_iterIP13PRIORITYELMNTEppEi
00000001003ff35c T __ZN7cu_iterIP13PRIORITYELMNTEppEv
000000010034799c T __ZN7dolphin28gcloud_version_action_config4dumpEv
0000000100346658 T __ZN7dolphin28gcloud_version_action_config4loadERN7cu_Json5ValueE
0000000100433a3c T __ZN7fileops10write_fileEPyPcj
0000000100433898 T __ZN7fileops11setfilesizeEyP17progress_callback
00000001004335e8 T __ZN7fileops8openfileEPKc
0000000100433c24 T __ZN7fileops9seek_fileEy
00000001000d3374 T __ZN8TLIST_IT4NEXTERP9TLISTNODES2_
00000001000d3bec T __ZN8cu_event10cu_wfmo_t_7DestroyEv
00000001003e2834 T __ZN8cu_timer7restartEv
000000010030c308 T __ZN8diff_res7to_jsonEv
00000001004450cc T __ZN8mem_stat24get_max_total_allocationEv
00000001000d1ce8 T __ZN8scope_cs9get_mutexEv
00000001012a8da0 T __ZN9ApolloTVE10CSysThread14GSysThreadProcEPv
0000000101389b5c T __ZN9ApolloTVE12CAudioMp3Enc14CalcOutBufSizeEiiiiii
0000000101389ad8 T __ZN9ApolloTVE12CAudioMp3Enc9CreateEncEiiiiii
0000000101380c08 T __ZN9ApolloTVE12COpusWrapDec13CalcInBufSizeEiiii
0000000101380ba8 T __ZN9ApolloTVE12COpusWrapDec9CreateDecEiiiii
0000000101389ad0 T __ZN9ApolloTVE12COpusWrapEnc14CalcOutBufSizeEiiiiii
0000000101389a4c T __ZN9ApolloTVE12COpusWrapEnc9CreateEncEiiiiii
0000000100e46344 T __ZN9CAkSrcAACI12CAkSrcBaseExE16AQBufferCallbackEPvP16OpaqueAudioQueueP16AudioQueueBuffer
0000000100e461d8 T __ZN9CAkSrcAACI12CAkSrcBaseExE24AudioFileGetsizeCallbackEPv
0000000100e46158 T __ZN9CAkSrcAACI12CAkSrcBaseExE25AudioFileReadFileCallbackEPvxjS2_Pj
0000000100e4672c T __ZN9CAkSrcAACI12CAkSrcBaseExE35ApplicationResignActiveNotificationEP22__CFNotificationCenterPvPK10__CFStringPKvPK14__CFDictionary
0000000100e46710 T __ZN9CAkSrcAACI12CAkSrcBaseExE38ApplicationDidBecomeActiveNotificationEP22__CFNotificationCenterPvPK10__CFStringPKvPK14__CFDictionary
0000000100e46730 T __ZN9CAkSrcAACI12CAkSrcBaseExE41ApplicationDidEnterBackgroundNotificationEP22__CFNotificationCenterPvPK10__CFStringPKvPK14__CFDictionary
0000000100e46740 T __ZN9CAkSrcAACI12CAkSrcBaseExE42ApplicationWillEnterForegroundNotificationEP22__CFNotificationCenterPvPK10__CFStringPKvPK14__CFDictionary
0000000100e488f8 T __ZN9CAkSrcAACI14CAkSrcFileBaseE16AQBufferCallbackEPvP16OpaqueAudioQueueP16AudioQueueBuffer
0000000100e4878c T __ZN9CAkSrcAACI14CAkSrcFileBaseE24AudioFileGetsizeCallbackEPv
0000000100e4870c T __ZN9CAkSrcAACI14CAkSrcFileBaseE25AudioFileReadFileCallbackEPvxjS2_Pj
0000000100e47ee0 T __ZN9CAkSrcAACI14CAkSrcFileBaseE35ApplicationResignActiveNotificationEP22__CFNotificationCenterPvPK10__CFStringPKvPK14__CFDictionary
0000000100e47ec4 T __ZN9CAkSrcAACI14CAkSrcFileBaseE38ApplicationDidBecomeActiveNotificationEP22__CFNotificationCenterPvPK10__CFStringPKvPK14__CFDictionary
0000000100e47ee4 T __ZN9CAkSrcAACI14CAkSrcFileBaseE41ApplicationDidEnterBackgroundNotificationEP22__CFNotificationCenterPvPK10__CFStringPKvPK14__CFDictionary
0000000100e47ef4 T __ZN9CAkSrcAACI14CAkSrcFileBaseE42ApplicationWillEnterForegroundNotificationEP22__CFNotificationCenterPvPK10__CFStringPKvPK14__CFDictionary
0000000100154084 T __ZN9TLISTNODE12is_not_emptyEv
000000010015fe30 T __ZN9TLISTNODE8is_emptyEv
00000001002cb174 T __ZN9TNIFSFile16getFileTotalSizeEv
00000001003dc8a4 T __ZN9_tagRange12IsRangeValidEv
00000001003daf18 T __ZN9_tagRange7IsValidEv
000000010047230c T __ZN9url_parse12get_url_typeEv
000000010046ed24 T __ZN9url_parse9parse_urlEPKc
0000000100163be8 T __ZNK10apollo_p2p16connection_indexeqERKS0_
000000010010e970 T __ZNK10gcloud_gcp10O2AuthData10has_ExtendEv
000000010010e998 T __ZNK10gcloud_gcp10O2AuthData14set_has_ExtendEv
000000010010e928 T __ZNK10gcloud_gcp10O2AuthData15has_AccessTokenEv
000000010010e9b8 T __ZNK10gcloud_gcp10O2AuthData16requiredFieldNumEv
000000010010e950 T __ZNK10gcloud_gcp10O2AuthData19set_has_AccessTokenEv
000000010011a10c T __ZNK10gcloud_gcp11TGCPAckBody15has_AuthResInfoEv
000000010011a0c4 T __ZNK10gcloud_gcp11TGCPAckBody15has_HasAuthInfoEv
000000010011a154 T __ZNK10gcloud_gcp11TGCPAckBody16requiredFieldNumEv
000000010011a134 T __ZNK10gcloud_gcp11TGCPAckBody19set_has_AuthResInfoEv
000000010011a0ec T __ZNK10gcloud_gcp11TGCPAckBody19set_has_HasAuthInfoEv
000000010011c2f4 T __ZNK10gcloud_gcp11TGCPAckHead11has_KeyInfoEv
000000010011c3cc T __ZNK10gcloud_gcp11TGCPAckHead12has_ReservedEv
000000010011c264 T __ZNK10gcloud_gcp11TGCPAckHead13has_EncMethodEv
000000010011c2ac T __ZNK10gcloud_gcp11TGCPAckHead13has_KeyMethodEv
000000010011c31c T __ZNK10gcloud_gcp11TGCPAckHead15set_has_KeyInfoEv
000000010011c414 T __ZNK10gcloud_gcp11TGCPAckHead16requiredFieldNumEv
000000010011c3f4 T __ZNK10gcloud_gcp11TGCPAckHead16set_has_ReservedEv
000000010011c384 T __ZNK10gcloud_gcp11TGCPAckHead17has_CompressLimitEv
000000010011c28c T __ZNK10gcloud_gcp11TGCPAckHead17set_has_EncMethodEv
000000010011c2d4 T __ZNK10gcloud_gcp11TGCPAckHead17set_has_KeyMethodEv
000000010011c33c T __ZNK10gcloud_gcp11TGCPAckHead18has_CompressMethodEv
000000010011c3ac T __ZNK10gcloud_gcp11TGCPAckHead21set_has_CompressLimitEv
000000010011c364 T __ZNK10gcloud_gcp11TGCPAckHead22set_has_CompressMethodEv
0000000100116c14 T __ZNK10gcloud_gcp11TGCPSynHead10has_GameIDEv
0000000100116c5c T __ZNK10gcloud_gcp11TGCPSynHead10has_UnitIDEv
0000000100116cec T __ZNK10gcloud_gcp11TGCPSynHead11has_AccountEv
0000000100116b84 T __ZNK10gcloud_gcp11TGCPSynHead11has_KeyInfoEv
0000000100116f2c T __ZNK10gcloud_gcp11TGCPSynHead12has_ReservedEv
0000000100116bcc T __ZNK10gcloud_gcp11TGCPSynHead13has_EncMethodEv
0000000100116b3c T __ZNK10gcloud_gcp11TGCPSynHead13has_KeyMethodEv
0000000100116e9c T __ZNK10gcloud_gcp11TGCPSynHead13has_RouteFlagEv
0000000100116ee4 T __ZNK10gcloud_gcp11TGCPSynHead13has_RouteInfoEv
0000000100116ca4 T __ZNK10gcloud_gcp11TGCPSynHead14has_ClientTypeEv
0000000100116c3c T __ZNK10gcloud_gcp11TGCPSynHead14set_has_GameIDEv
0000000100116c84 T __ZNK10gcloud_gcp11TGCPSynHead14set_has_UnitIDEv
0000000100116e0c T __ZNK10gcloud_gcp11TGCPSynHead15has_AuthReqInfoEv
0000000100116dc4 T __ZNK10gcloud_gcp11TGCPSynHead15has_HasAuthInfoEv
0000000100116d14 T __ZNK10gcloud_gcp11TGCPSynHead15set_has_AccountEv
0000000100116bac T __ZNK10gcloud_gcp11TGCPSynHead15set_has_KeyInfoEv
0000000100116d34 T __ZNK10gcloud_gcp11TGCPSynHead16has_HasRelayInfoEv
0000000100116d7c T __ZNK10gcloud_gcp11TGCPSynHead16has_RelayReqInfoEv
0000000100116f74 T __ZNK10gcloud_gcp11TGCPSynHead16requiredFieldNumEv
0000000100116f54 T __ZNK10gcloud_gcp11TGCPSynHead16set_has_ReservedEv
0000000100116bf4 T __ZNK10gcloud_gcp11TGCPSynHead17set_has_EncMethodEv
0000000100116b64 T __ZNK10gcloud_gcp11TGCPSynHead17set_has_KeyMethodEv
0000000100116ec4 T __ZNK10gcloud_gcp11TGCPSynHead17set_has_RouteFlagEv
0000000100116f0c T __ZNK10gcloud_gcp11TGCPSynHead17set_has_RouteInfoEv
0000000100116ccc T __ZNK10gcloud_gcp11TGCPSynHead18set_has_ClientTypeEv
0000000100116e34 T __ZNK10gcloud_gcp11TGCPSynHead19set_has_AuthReqInfoEv
0000000100116dec T __ZNK10gcloud_gcp11TGCPSynHead19set_has_HasAuthInfoEv
0000000100116d5c T __ZNK10gcloud_gcp11TGCPSynHead20set_has_HasRelayInfoEv
0000000100116da4 T __ZNK10gcloud_gcp11TGCPSynHead20set_has_RelayReqInfoEv
0000000100116e54 T __ZNK10gcloud_gcp11TGCPSynHead29has_SupportCompressMethodListEv
0000000100116e7c T __ZNK10gcloud_gcp11TGCPSynHead33set_has_SupportCompressMethodListEv
000000010011d16c T __ZNK10gcloud_gcp12TGCPDataHead13has_AllowLostEv
000000010011d1b4 T __ZNK10gcloud_gcp12TGCPDataHead13has_RouteFlagEv
000000010011d1fc T __ZNK10gcloud_gcp12TGCPDataHead13has_RouteInfoEv
000000010011d124 T __ZNK10gcloud_gcp12TGCPDataHead16has_CompressFlagEv
000000010011d244 T __ZNK10gcloud_gcp12TGCPDataHead16requiredFieldNumEv
000000010011d194 T __ZNK10gcloud_gcp12TGCPDataHead17set_has_AllowLostEv
000000010011d1dc T __ZNK10gcloud_gcp12TGCPDataHead17set_has_RouteFlagEv
000000010011d224 T __ZNK10gcloud_gcp12TGCPDataHead17set_has_RouteInfoEv
000000010011d14c T __ZNK10gcloud_gcp12TGCPDataHead20set_has_CompressFlagEv
000000010011a8e8 T __ZNK10gcloud_gcp12TGCPWaitBody12has_PositionEv
000000010011a978 T __ZNK10gcloud_gcp12TGCPWaitBody13has_RoughTimeEv
000000010011a958 T __ZNK10gcloud_gcp12TGCPWaitBody13set_has_TotalEv
000000010011a9c0 T __ZNK10gcloud_gcp12TGCPWaitBody16requiredFieldNumEv
000000010011a910 T __ZNK10gcloud_gcp12TGCPWaitBody16set_has_PositionEv
000000010011a9a0 T __ZNK10gcloud_gcp12TGCPWaitBody17set_has_RoughTimeEv
000000010011a930 T __ZNK10gcloud_gcp12TGCPWaitBody9has_TotalEv
00000001001074c8 T __ZNK10gcloud_gcp12TSF4GAccount10has_FormatEv
0000000100107580 T __ZNK10gcloud_gcp12TSF4GAccount11set_has_UidEv
00000001001072b8 T __ZNK10gcloud_gcp12TSF4GAccount12set_has_TypeEv
0000000100107538 T __ZNK10gcloud_gcp12TSF4GAccount13set_has_ValueEv
00000001001074f0 T __ZNK10gcloud_gcp12TSF4GAccount14set_has_FormatEv
00000001001075a0 T __ZNK10gcloud_gcp12TSF4GAccount16requiredFieldNumEv
0000000100107558 T __ZNK10gcloud_gcp12TSF4GAccount7has_UidEv
0000000100107290 T __ZNK10gcloud_gcp12TSF4GAccount8has_TypeEv
0000000100107510 T __ZNK10gcloud_gcp12TSF4GAccount9has_ValueEv
0000000100120e48 T __ZNK10gcloud_gcp13TGCPBingoBody13has_RelayInfoEv
0000000100120f20 T __ZNK10gcloud_gcp13TGCPBingoBody16requiredFieldNumEv
0000000100120ed8 T __ZNK10gcloud_gcp13TGCPBingoBody17has_CompressLimitEv
0000000100120e70 T __ZNK10gcloud_gcp13TGCPBingoBody17set_has_RelayInfoEv
0000000100120e90 T __ZNK10gcloud_gcp13TGCPBingoBody18has_CompressMethodEv
0000000100120f00 T __ZNK10gcloud_gcp13TGCPBingoBody21set_has_CompressLimitEv
0000000100120eb8 T __ZNK10gcloud_gcp13TGCPBingoBody22set_has_CompressMethodEv
000000010011ae48 T __ZNK10gcloud_gcp13TGCPCStopBody12has_ReservedEv
000000010011ae90 T __ZNK10gcloud_gcp13TGCPCStopBody16requiredFieldNumEv
000000010011ae70 T __ZNK10gcloud_gcp13TGCPCStopBody16set_has_ReservedEv
000000010011b4cc T __ZNK10gcloud_gcp13TGCPSStopBody12set_has_CodeEv
000000010011b4ec T __ZNK10gcloud_gcp13TGCPSStopBody13has_ExErrCodeEv
000000010011b534 T __ZNK10gcloud_gcp13TGCPSStopBody16requiredFieldNumEv
000000010011b514 T __ZNK10gcloud_gcp13TGCPSStopBody17set_has_ExErrCodeEv
000000010011b4a4 T __ZNK10gcloud_gcp13TGCPSStopBody8has_CodeEv
0000000100108620 T __ZNK10gcloud_gcp13TSF4GRawDHReq10has_A_sizeEv
0000000100108690 T __ZNK10gcloud_gcp13TSF4GRawDHReq12set_has_DH_AEv
00000001001086d8 T __ZNK10gcloud_gcp13TSF4GRawDHReq12set_has_DH_pEv
0000000100108648 T __ZNK10gcloud_gcp13TSF4GRawDHReq14set_has_A_sizeEv
00000001001086f8 T __ZNK10gcloud_gcp13TSF4GRawDHReq16requiredFieldNumEv
0000000100108668 T __ZNK10gcloud_gcp13TSF4GRawDHReq8has_DH_AEv
00000001001086b0 T __ZNK10gcloud_gcp13TSF4GRawDHReq8has_DH_pEv
0000000100109ec8 T __ZNK10gcloud_gcp13TSF4GRawDHRsp10has_B_sizeEv
0000000100109f38 T __ZNK10gcloud_gcp13TSF4GRawDHRsp12set_has_DH_BEv
0000000100109ef0 T __ZNK10gcloud_gcp13TSF4GRawDHRsp14set_has_B_sizeEv
0000000100109f58 T __ZNK10gcloud_gcp13TSF4GRawDHRsp16requiredFieldNumEv
0000000100109f10 T __ZNK10gcloud_gcp13TSF4GRawDHRsp8has_DH_BEv
000000010010ac14 T __ZNK10gcloud_gcp14TSF4GEncDHInfo13has_EncMethodEv
000000010010ac5c T __ZNK10gcloud_gcp14TSF4GEncDHInfo14has_EncInfoLenEv
000000010010acec T __ZNK10gcloud_gcp14TSF4GEncDHInfo16requiredFieldNumEv
000000010010aca4 T __ZNK10gcloud_gcp14TSF4GEncDHInfo17has_EncryptedInfoEv
000000010010ac3c T __ZNK10gcloud_gcp14TSF4GEncDHInfo17set_has_EncMethodEv
000000010010ac84 T __ZNK10gcloud_gcp14TSF4GEncDHInfo18set_has_EncInfoLenEv
000000010010accc T __ZNK10gcloud_gcp14TSF4GEncDHInfo21set_has_EncryptedInfoEv
000000010010fa94 T __ZNK10gcloud_gcp15TGCPAuthReqBody12has_AuthTypeEv
000000010010fadc T __ZNK10gcloud_gcp15TGCPAuthReqBody13has_GameTokenEv
000000010010fbb4 T __ZNK10gcloud_gcp15TGCPAuthReqBody13has_OAuthDataEv
000000010010fbfc T __ZNK10gcloud_gcp15TGCPAuthReqBody16requiredFieldNumEv
000000010010fabc T __ZNK10gcloud_gcp15TGCPAuthReqBody16set_has_AuthTypeEv
000000010010fb04 T __ZNK10gcloud_gcp15TGCPAuthReqBody17set_has_GameTokenEv
000000010010fbdc T __ZNK10gcloud_gcp15TGCPAuthReqBody17set_has_OAuthDataEv
000000010010fb24 T __ZNK10gcloud_gcp15TGCPAuthReqBody20has_XGCloudTimestampEv
000000010010fb6c T __ZNK10gcloud_gcp15TGCPAuthReqBody23has_XGCloudTokenVersionEv
000000010010fb4c T __ZNK10gcloud_gcp15TGCPAuthReqBody24set_has_XGCloudTimestampEv
000000010010fb94 T __ZNK10gcloud_gcp15TGCPAuthReqBody27set_has_XGCloudTokenVersionEv
0000000100118638 T __ZNK10gcloud_gcp15TGCPAuthRspBody10has_ExtendEv
0000000100118560 T __ZNK10gcloud_gcp15TGCPAuthRspBody11has_AccountEv
0000000100118618 T __ZNK10gcloud_gcp15TGCPAuthRspBody11set_has_AtkEv
00000001001185a8 T __ZNK10gcloud_gcp15TGCPAuthRspBody12has_AuthTypeEv
0000000100118660 T __ZNK10gcloud_gcp15TGCPAuthRspBody14set_has_ExtendEv
0000000100118588 T __ZNK10gcloud_gcp15TGCPAuthRspBody15set_has_AccountEv
0000000100118680 T __ZNK10gcloud_gcp15TGCPAuthRspBody16requiredFieldNumEv
00000001001185d0 T __ZNK10gcloud_gcp15TGCPAuthRspBody16set_has_AuthTypeEv
00000001001185f0 T __ZNK10gcloud_gcp15TGCPAuthRspBody7has_AtkEv
00000001001122e0 T __ZNK10gcloud_gcp16TGCPRelayReqBody13has_RelayInfoEv
000000010011203c T __ZNK10gcloud_gcp16TGCPRelayReqBody13has_RelayTypeEv
0000000100112328 T __ZNK10gcloud_gcp16TGCPRelayReqBody16requiredFieldNumEv
0000000100112308 T __ZNK10gcloud_gcp16TGCPRelayReqBody17set_has_RelayInfoEv
0000000100112064 T __ZNK10gcloud_gcp16TGCPRelayReqBody17set_has_RelayTypeEv
00000001001198a4 T __ZNK10gcloud_gcp18TGCPAuthRefreshReq11has_ReserveEv
00000001001198cc T __ZNK10gcloud_gcp18TGCPAuthRefreshReq15set_has_ReserveEv
00000001001198ec T __ZNK10gcloud_gcp18TGCPAuthRefreshReq16requiredFieldNumEv
00000001001213a8 T __ZNK10gcloud_gcp19TGCPRouteChangeBody12has_ServerIDEv
00000001001213f0 T __ZNK10gcloud_gcp19TGCPRouteChangeBody16requiredFieldNumEv
00000001001213d0 T __ZNK10gcloud_gcp19TGCPRouteChangeBody16set_has_ServerIDEv
0000000100113294 T __ZNK10gcloud_gcp20SpecifyNameRouteInfo15has_ServiceNameEv
00000001001132dc T __ZNK10gcloud_gcp20SpecifyNameRouteInfo16requiredFieldNumEv
00000001001132bc T __ZNK10gcloud_gcp20SpecifyNameRouteInfo19set_has_ServiceNameEv
0000000100112a7c T __ZNK10gcloud_gcp20SpecifyZoneRouteInfo10has_TypeIDEv
0000000100112ac4 T __ZNK10gcloud_gcp20SpecifyZoneRouteInfo10has_ZoneIDEv
0000000100112aa4 T __ZNK10gcloud_gcp20SpecifyZoneRouteInfo14set_has_TypeIDEv
0000000100112aec T __ZNK10gcloud_gcp20SpecifyZoneRouteInfo14set_has_ZoneIDEv
0000000100112b0c T __ZNK10gcloud_gcp20SpecifyZoneRouteInfo16requiredFieldNumEv
0000000100113968 T __ZNK10gcloud_gcp22SpecifyServerRouteInfo12has_ServerIDEv
00000001001139b0 T __ZNK10gcloud_gcp22SpecifyServerRouteInfo14has_ServerTypeEv
00000001001139f8 T __ZNK10gcloud_gcp22SpecifyServerRouteInfo16requiredFieldNumEv
0000000100113990 T __ZNK10gcloud_gcp22SpecifyServerRouteInfo16set_has_ServerIDEv
00000001001139d8 T __ZNK10gcloud_gcp22SpecifyServerRouteInfo18set_has_ServerTypeEv
0000000100119344 T __ZNK10gcloud_gcp25TGCPAuthRefreshNotifyBody10has_AtkLenEv
00000001001193b4 T __ZNK10gcloud_gcp25TGCPAuthRefreshNotifyBody11set_has_AtkEv
00000001001192fc T __ZNK10gcloud_gcp25TGCPAuthRefreshNotifyBody12has_AuthTypeEv
000000010011936c T __ZNK10gcloud_gcp25TGCPAuthRefreshNotifyBody14set_has_AtkLenEv
00000001001193d4 T __ZNK10gcloud_gcp25TGCPAuthRefreshNotifyBody15has_AtkExpireInEv
000000010011941c T __ZNK10gcloud_gcp25TGCPAuthRefreshNotifyBody16requiredFieldNumEv
0000000100119324 T __ZNK10gcloud_gcp25TGCPAuthRefreshNotifyBody16set_has_AuthTypeEv
00000001001193fc T __ZNK10gcloud_gcp25TGCPAuthRefreshNotifyBody19set_has_AtkExpireInEv
000000010011938c T __ZNK10gcloud_gcp25TGCPAuthRefreshNotifyBody7has_AtkEv
000000010010c0f0 T __ZNK10gcloud_gcp8TGCPBase11has_BodyLenEv
000000010010bf88 T __ZNK10gcloud_gcp8TGCPBase11has_CommandEv
000000010010c0a8 T __ZNK10gcloud_gcp8TGCPBase11has_HeadLenEv
000000010010c060 T __ZNK10gcloud_gcp8TGCPBase12has_SequenceEv
000000010010c018 T __ZNK10gcloud_gcp8TGCPBase13has_EncryptedEv
000000010010bfd0 T __ZNK10gcloud_gcp8TGCPBase13has_TimeStampEv
000000010010bed8 T __ZNK10gcloud_gcp8TGCPBase13set_has_MagicEv
000000010010bf40 T __ZNK10gcloud_gcp8TGCPBase15has_BodyVersionEv
000000010010bef8 T __ZNK10gcloud_gcp8TGCPBase15has_HeadVersionEv
000000010010c118 T __ZNK10gcloud_gcp8TGCPBase15set_has_BodyLenEv
000000010010bfb0 T __ZNK10gcloud_gcp8TGCPBase15set_has_CommandEv
000000010010c0d0 T __ZNK10gcloud_gcp8TGCPBase15set_has_HeadLenEv
000000010010c138 T __ZNK10gcloud_gcp8TGCPBase16requiredFieldNumEv
000000010010c088 T __ZNK10gcloud_gcp8TGCPBase16set_has_SequenceEv
000000010010c040 T __ZNK10gcloud_gcp8TGCPBase17set_has_EncryptedEv
000000010010bff8 T __ZNK10gcloud_gcp8TGCPBase17set_has_TimeStampEv
000000010010bf68 T __ZNK10gcloud_gcp8TGCPBase19set_has_BodyVersionEv
000000010010bf20 T __ZNK10gcloud_gcp8TGCPBase19set_has_HeadVersionEv
000000010010beb0 T __ZNK10gcloud_gcp8TGCPBase9has_MagicEv
0000000100120234 T __ZNK10gcloud_gcp8TGCPHead10has_ExtendEv
0000000100120214 T __ZNK10gcloud_gcp8TGCPHead12set_has_BaseEv
000000010012025c T __ZNK10gcloud_gcp8TGCPHead14set_has_ExtendEv
000000010012027c T __ZNK10gcloud_gcp8TGCPHead16requiredFieldNumEv
00000001001201ec T __ZNK10gcloud_gcp8TGCPHead8has_BaseEv
00000001001092fc T __ZNK10gcloud_gcp8TSF4GKey10has_LengthEv
000000010010936c T __ZNK10gcloud_gcp8TSF4GKey13set_has_ValueEv
0000000100109324 T __ZNK10gcloud_gcp8TSF4GKey14set_has_LengthEv
000000010010938c T __ZNK10gcloud_gcp8TSF4GKey16requiredFieldNumEv
0000000100109344 T __ZNK10gcloud_gcp8TSF4GKey9has_ValueEv
00000001001110c4 T __ZNK10gcloud_gcp9TGCPRelay12has_IdentityEv
000000010011107c T __ZNK10gcloud_gcp9TGCPRelay12has_PositionEv
000000010011110c T __ZNK10gcloud_gcp9TGCPRelay12has_ServerIDEv
0000000100111154 T __ZNK10gcloud_gcp9TGCPRelay13has_SessionIDEv
0000000100111414 T __ZNK10gcloud_gcp9TGCPRelay14has_ServerTypeEv
00000001001114a4 T __ZNK10gcloud_gcp9TGCPRelay16requiredFieldNumEv
00000001001110ec T __ZNK10gcloud_gcp9TGCPRelay16set_has_IdentityEv
00000001001110a4 T __ZNK10gcloud_gcp9TGCPRelay16set_has_PositionEv
0000000100111134 T __ZNK10gcloud_gcp9TGCPRelay16set_has_ServerIDEv
000000010011117c T __ZNK10gcloud_gcp9TGCPRelay17set_has_SessionIDEv
000000010011143c T __ZNK10gcloud_gcp9TGCPRelay18set_has_ServerTypeEv
000000010011145c T __ZNK10gcloud_gcp9TGCPRelay20has_StartServiceNameEv
0000000100111484 T __ZNK10gcloud_gcp9TGCPRelay24set_has_StartServiceNameEv
00000001003ea5cc T __ZNK11HttpNetwork8GetSocksEv
00000001003fc43c T __ZNK11ITaskRunner17GetPriorityDetailEv
00000001003fc424 T __ZNK11ITaskRunner9GetConfigEv
0000000100374094 T __ZNK11cu_auto_ptrIN27apollo_clientupdateprotocol6CusPkgEEdeEv
0000000100372e8c T __ZNK11cu_auto_ptrIN27apollo_clientupdateprotocol6CusPkgEEptEv
000000010027ff00 T __ZNK11cu_auto_ptrIN6pebble3rpc12RpcConnectorEEdeEv
000000010027fa7c T __ZNK11cu_auto_ptrIN6pebble3rpc12RpcConnectorEEptEv
000000010033b824 T __ZNK11cu_auto_ptrINSt3__114basic_ifstreamIcNS0_11char_traitsIcEEEEEdeEv
000000010033b750 T __ZNK11cu_auto_ptrINSt3__114basic_ifstreamIcNS0_11char_traitsIcEEEEEptEv
00000001002ec6e8 T __ZNK11cu_auto_ptrINSt3__114basic_ofstreamIcNS0_11char_traitsIcEEEEEdeEv
00000001002ec4a8 T __ZNK11cu_auto_ptrINSt3__114basic_ofstreamIcNS0_11char_traitsIcEEEEEptEv
00000001003e7874 T __ZNK11cu_auto_ptrINSt3__119basic_ostringstreamIcNS0_11char_traitsIcEENS0_9allocatorIcEEEEEdeEv
00000001003e788c T __ZNK11cu_auto_ptrINSt3__119basic_ostringstreamIcNS0_11char_traitsIcEENS0_9allocatorIcEEEEEptEv
00000001003f413c T __ZNK12HttpDownload10IsHeadOnlyEv
00000001003ebab4 T __ZNK12HttpDownload11GetCallbackEv
00000001003f51dc T __ZNK12HttpDownload11GetServerIpEv
00000001003f520c T __ZNK12HttpDownload13GetServerPortEv
00000001003f611c T __ZNK12HttpDownload24GetMultiGapDisconnectingEv
00000001003f1800 T __ZNK12HttpDownload6GetGapEv
00000001003de0ec T __ZNK16CDownloadProcess15GetRunningTasksEv
00000001003fe22c T __ZNK16cu_download_listIP13PRIORITYELMNTE5emptyEv
0000000100379c30 T __ZNK18version_action_imp23new_version_info_struct9serializeEv
00000001003d78cc T __ZNK19cu_resumebrokeninfo22cu_st_resumebrokeninfo13isTDIFileNeedEv
00000001002f264c T __ZNK2cu9CuResFile11GetSpareUrlEv
00000001003e2e14 T __ZNK3Gap11GetInterPosEv
00000001003d942c T __ZNK3Gap11IsCompletedEv
00000001003ea598 T __ZNK3Gap14GetEmptyLengthEv
00000001003e2dfc T __ZNK3Gap6GetEndEv
00000001003e2de4 T __ZNK3Gap8GetBeginEv
00000001003ed958 T __ZNK3Gap9GetLengthEv
00000001003f5224 T __ZNK3URI7getHostEv
000000010041580c T __ZNK4fund6memory15_shared_baseptrI19_tagCreateTaskInnerLb0ELb1EE7addressENS_8Int2TypeILi0EEE
00000001003fb76c T __ZNK4fund6memory15_shared_baseptrI19_tagCreateTaskInnerLb0ELb1EE9_ptr_data7freeptrEPS2_NS_8Int2TypeILi0EEE
0000000100411b48 T __ZNK4fund6memory15_shared_baseptrI19_tagCreateTaskInnerLb0ELb1EEptEv
00000001003e7114 T __ZNK4fund6memory15_shared_baseptrI5CTaskLb0ELb1EE3getEv
00000001003e70b0 T __ZNK4fund6memory15_shared_baseptrI5CTaskLb0ELb1EE7addressENS_8Int2TypeILi0EEE
00000001003e696c T __ZNK4fund6memory15_shared_baseptrI5CTaskLb0ELb1EE9_ptr_data7freeptrEPS2_NS_8Int2TypeILi0EEE
00000001003e0a3c T __ZNK4fund6memory15_shared_baseptrI5CTaskLb0ELb1EEeqERKS3_
00000001003e0a84 T __ZNK4fund6memory15_shared_baseptrI5CTaskLb0ELb1EEptEv
00000001002215ec T __ZNK5ABase10TdrReadBuf11getLeftSizeEv
00000001002214e4 T __ZNK5ABase10TdrReadBuf11getUsedSizeEv
0000000100221870 T __ZNK5ABase11TdrWriteBuf11getBeginPtrEv
0000000100221170 T __ZNK5ABase11TdrWriteBuf11getUsedSizeEv
00000001000c701c T __ZNK5ABase20_tagApolloBufferBase6EncodeER7AString
000000010109efa4 T __ZNK5physx14NpSceneQueries10multiQueryINS_10PxSweepHitEEEbRKNS_15MultiQueryInputERNS_13PxHitCallbackIT_EENS_7PxFlagsINS_9PxHitFlag4EnumEtEEPKNS_12PxQueryCacheERKNS_17PxQueryFilterDataEPNS_21PxQueryFilterCallbackEPNS_20BatchQueryFilterDataE
000000010109ebec T __ZNK5physx14NpSceneQueries10multiQueryINS_12PxOverlapHitEEEbRKNS_15MultiQueryInputERNS_13PxHitCallbackIT_EENS_7PxFlagsINS_9PxHitFlag4EnumEtEEPKNS_12PxQueryCacheERKNS_17PxQueryFilterDataEPNS_21PxQueryFilterCallbackEPNS_20BatchQueryFilterDataE
000000010109e8b8 T __ZNK5physx14NpSceneQueries10multiQueryINS_12PxRaycastHitEEEbRKNS_15MultiQueryInputERNS_13PxHitCallbackIT_EENS_7PxFlagsINS_9PxHitFlag4EnumEtEEPKNS_12PxQueryCacheERKNS_17PxQueryFilterDataEPNS_21PxQueryFilterCallbackEPNS_20BatchQueryFilterDataE
000000010114bc18 T __ZNK5physx2Gu5RTree11traverseRayILi0EEEvRKNS_6PxVec3ES5_jPjPNS1_15CallbackRaycastEPS4_f
000000010114bf3c T __ZNK5physx2Gu5RTree11traverseRayILi1EEEvRKNS_6PxVec3ES5_jPjPNS1_15CallbackRaycastEPS4_f
000000010101c27c T __ZNK5physx5cloth11SwCollisionI6Simd4fE12collideConesEPKS2_PS2_RNS3_18ImpulseAccumulatorE
000000010101bcb0 T __ZNK5physx5cloth11SwCollisionI6Simd4fE12collideConesEPKS2_RNS3_18ImpulseAccumulatorE
000000010101b6d8 T __ZNK5physx5cloth11SwCollisionI6Simd4fE12getShapeMaskEPKS2_
000000010101b8c0 T __ZNK5physx5cloth11SwCollisionI6Simd4fE12getShapeMaskEPKS2_S5_
000000010101bf88 T __ZNK5physx5cloth11SwCollisionI6Simd4fE14collideSpheresERK6Simd4iPKS2_PS2_RNS3_18ImpulseAccumulatorE
00000001010136c0 T __ZNK5physx5cloth9ClothImplINS0_7SwClothEE10getDampingEv
0000000101013160 T __ZNK5physx5cloth9ClothImplINS0_7SwClothEE10getFactoryEv
00000001010134d0 T __ZNK5physx5cloth9ClothImplINS0_7SwClothEE10getGravityEv
0000000101015a10 T __ZNK5physx5cloth9ClothImplINS0_7SwClothEE11getFrictionEv
00000001010132e4 T __ZNK5physx5cloth9ClothImplINS0_7SwClothEE11getRotationEv
0000000101016a64 T __ZNK5physx5cloth9ClothImplINS0_7SwClothEE11getUserDataEv
0000000101014fec T __ZNK5physx5cloth9ClothImplINS0_7SwClothEE12getNumPlanesEv
00000001010139e8 T __ZNK5physx5cloth9ClothImplINS0_7SwClothEE13getLinearDragEv
0000000101014884 T __ZNK5physx5cloth9ClothImplINS0_7SwClothEE13getNumSpheresEv
0000000101013d10 T __ZNK5physx5cloth9ClothImplINS0_7SwClothEE14getAngularDragEv
0000000101014ab4 T __ZNK5physx5cloth9ClothImplINS0_7SwClothEE14getNumCapsulesEv
0000000101015294 T __ZNK5physx5cloth9ClothImplINS0_7SwClothEE14getNumConvexesEv
00000001010132d4 T __ZNK5physx5cloth9ClothImplINS0_7SwClothEE14getTranslationEv
0000000101015948 T __ZNK5physx5cloth9ClothImplINS0_7SwClothEE15getNumTrianglesEv
0000000101016248 T __ZNK5physx5cloth9ClothImplINS0_7SwClothEE15getWindVelocityEv
0000000101013f34 T __ZNK5physx5cloth9ClothImplINS0_7SwClothEE16getLinearInertiaEv
0000000101014020 T __ZNK5physx5cloth9ClothImplINS0_7SwClothEE17getAngularInertiaEv
00000001010169f4 T __ZNK5physx5cloth9ClothImplINS0_7SwClothEE17getSleepPassCountEv
0000000101016964 T __ZNK5physx5cloth9ClothImplINS0_7SwClothEE17getSleepThresholdEv
0000000101016338 T __ZNK5physx5cloth9ClothImplINS0_7SwClothEE18getDragCoefficientEv
0000000101016470 T __ZNK5physx5cloth9ClothImplINS0_7SwClothEE18getLiftCoefficientEv
00000001010169e4 T __ZNK5physx5cloth9ClothImplINS0_7SwClothEE18getSleepAfterCountEv
00000001010141e4 T __ZNK5physx5cloth9ClothImplINS0_7SwClothEE18getSolverFrequencyEv
0000000101016924 T __ZNK5physx5cloth9ClothImplINS0_7SwClothEE19getBoundingBoxScaleEv
0000000101016904 T __ZNK5physx5cloth9ClothImplINS0_7SwClothEE19getNumRestPositionsEv
0000000101016914 T __ZNK5physx5cloth9ClothImplINS0_7SwClothEE20getBoundingBoxCenterEv
00000001010169a4 T __ZNK5physx5cloth9ClothImplINS0_7SwClothEE20getSleepTestIntervalEv
000000010101410c T __ZNK5physx5cloth9ClothImplINS0_7SwClothEE21getCentrifugalInertiaEv
00000001010159b8 T __ZNK5physx5cloth9ClothImplINS0_7SwClothEE21getCollisionMassScaleEv
0000000101014224 T __ZNK5physx5cloth9ClothImplINS0_7SwClothEE21getStiffnessFrequencyEv
000000010101340c T __ZNK5physx5cloth9ClothImplINS0_7SwClothEE22getPreviousIterationDtEv
0000000101015da0 T __ZNK5physx5cloth9ClothImplINS0_7SwClothEE23getMotionConstraintBiasEv
0000000101015d30 T __ZNK5physx5cloth9ClothImplINS0_7SwClothEE23getNumMotionConstraintsEv
0000000101015d90 T __ZNK5physx5cloth9ClothImplINS0_7SwClothEE24getMotionConstraintScaleEv
0000000101016520 T __ZNK5physx5cloth9ClothImplINS0_7SwClothEE24getSelfCollisionDistanceEv
0000000101015a60 T __ZNK5physx5cloth9ClothImplINS0_7SwClothEE24getTetherConstraintScaleEv
00000001010165e8 T __ZNK5physx5cloth9ClothImplINS0_7SwClothEE25getSelfCollisionStiffnessEv
0000000101014384 T __ZNK5physx5cloth9ClothImplINS0_7SwClothEE26getAccelerationFilterWidthEv
0000000101016668 T __ZNK5physx5cloth9ClothImplINS0_7SwClothEE26getNumSelfCollisionIndicesEv
000000010101617c T __ZNK5physx5cloth9ClothImplINS0_7SwClothEE27getNumParticleAccelerationsEv
0000000101016070 T __ZNK5physx5cloth9ClothImplINS0_7SwClothEE27getNumSeparationConstraintsEv
0000000101015e68 T __ZNK5physx5cloth9ClothImplINS0_7SwClothEE28getMotionConstraintStiffnessEv
0000000101015a20 T __ZNK5physx5cloth9ClothImplINS0_7SwClothEE28getNumVirtualParticleWeightsEv
0000000101015b28 T __ZNK5physx5cloth9ClothImplINS0_7SwClothEE28getTetherConstraintStiffnessEv
0000000101015978 T __ZNK5physx5cloth9ClothImplINS0_7SwClothEE28isContinuousCollisionEnabledEv
0000000101016a04 T __ZNK5physx5cloth9ClothImplINS0_7SwClothEE8isAsleepEv
0000000101013148 T __ZNK5physx5cloth9ClothImplINS0_7SwClothEE9getFabricEv
00000001000fbd24 T __ZNK6GCloud11AccountInfo8GetTokenEi
00000001000b5ccc T __ZNK6GCloud13RouteInfoBase12GetRouteTypeEv
00000001000fb500 T __ZNK6GCloud4Conn13RouteInfoBase12GetRouteTypeEv
00000001000f7be8 T __ZNK6GCloud4Conn15ConnectorResult9IsSuccessEv
00000001000b29ac T __ZNK6GCloud6Result8ToStringEv
00000001000fbe20 T __ZNK6GCloud6Result9IsSuccessEv
00000001000ae538 T __ZNK6GCloud6ResulteqEi
00000001000b2980 T __ZNK6GCloud6ResultneEi
00000001000e5fdc T __ZNK6GCloud8UserInfoneES0_
00000001000c0d18 T __ZNK6GCloud9CBufQueue7IsEmptyEv
00000001001547c8 T __ZNK6apollo11lxaddr_inof8get_addrEv
00000001000d24dc T __ZNK6apollo15cmn_auto_buff_t10max_lengthEv
00000001000d2514 T __ZNK6apollo15cmn_auto_buff_t6lengthEv
00000001001544fc T __ZNK6apollo18tag_inet_addr_info6to_strEv
0000000100163c74 T __ZNK6apollo18tag_inet_addr_infoeqERKS0_
0000000100265a08 T __ZNK6pebble3rpc13TEnumIteratordeEv
00000001001a0190 T __ZNK6pebble3rpc9transport13TMemoryBuffer14available_readEv
00000001001a05e0 T __ZNK6pebble3rpc9transport13TMemoryBuffer15available_writeEv
00000001003ddd7c T __ZNK7CReport6GetUinEv
00000001003d948c T __ZNK7GapNode13IsDownloadingEv
00000001003e2e34 T __ZNK7GapNode7GetNextEv
000000010013c524 T __ZNK7cu_Json12StaticString5c_strEv
000000010028988c T __ZNK7cu_Json13ValueIteratordeEv
0000000100289858 T __ZNK7cu_Json17ValueIteratorBaseneERKS0_
00000001003ff344 T __ZNK7cu_iterIP13PRIORITYELMNTEdeEv
00000001003fdf44 T __ZNK7cu_iterIP13PRIORITYELMNTEeqERKS2_
00000001003ff2e4 T __ZNK7cu_iterIP13PRIORITYELMNTEneERKS2_
00000001003e0e70 T __ZNK8cu_timer7elapsedEv
                 U __ZNKSs12find_last_ofEcm
                 U __ZNKSs13find_first_ofEcm
                 U __ZNKSs4dataEv
                 U __ZNKSs4findEPKcm
                 U __ZNKSs4findERKSsm
                 U __ZNKSs4sizeEv
                 U __ZNKSs5beginEv
                 U __ZNKSs5c_strEv
                 U __ZNKSs5emptyEv
                 U __ZNKSs5rfindERKSsm
                 U __ZNKSs5rfindEcm
                 U __ZNKSs6lengthEv
                 U __ZNKSs6substrEmm
                 U __ZNKSs7_M_iendEv
                 U __ZNKSs7compareEPKc
                 U __ZNKSs7compareERKSs
                 U __ZNKSs7compareEmmRKSs
                 U __ZNKSs8capacityEv
                 U __ZNKSs9_M_ibeginEv
                 U __ZNKSsixEm
                 U __ZNKSt18basic_stringstreamIcSt11char_traitsIcESaIcEE3strEv
                 U __ZNKSt19basic_ostringstreamIcSt11char_traitsIcESaIcEE3strEv
000000010013b094 T __ZNKSt3__112__deque_baseIN7cu_Json6Reader9ErrorInfoENS_9allocatorIS3_EEE3endEv
000000010013af98 T __ZNKSt3__112__deque_baseIN7cu_Json6Reader9ErrorInfoENS_9allocatorIS3_EEE5beginEv
                 U __ZNKSt3__112basic_stringIcNS_11char_traitsIcEENS_9allocatorIcEEE4findEcm
                 U __ZNKSt3__112basic_stringIcNS_11char_traitsIcEENS_9allocatorIcEEE5rfindEcm
                 U __ZNKSt3__112basic_stringIcNS_11char_traitsIcEENS_9allocatorIcEEE7compareEPKc
                 U __ZNKSt3__112basic_stringIcNS_11char_traitsIcEENS_9allocatorIcEEE7compareEmmPKcm
0000000100433ca0 T __ZNKSt3__115basic_stringbufIcNS_11char_traitsIcEENS_9allocatorIcEEE3strEv
                 U __ZNKSt3__119__shared_weak_count13__get_deleterERKSt9type_info
                 U __ZNKSt3__120__vector_base_commonILb1EE20__throw_length_errorEv
                 U __ZNKSt3__120__vector_base_commonILb1EE20__throw_out_of_rangeEv
                 U __ZNKSt3__121__basic_string_commonILb1EE20__throw_length_errorEv
                 U __ZNKSt3__121__basic_string_commonILb1EE20__throw_out_of_rangeEv
00000001000c1cc4 T __ZNKSt3__16__treeINS_12__value_typeI9TGCPStateiEENS_19__map_value_compareIS2_S3_NS_4lessIS2_EELb1EEENS_9allocatorIS3_EEE10__root_ptrEv
00000001001428ec T __ZNKSt3__16__treeINS_12__value_typeIN7cu_Json5Value8CZStringES3_EENS_19__map_value_compareIS4_S5_NS_4lessIS4_EELb1EEENS_9allocatorIS5_EEE10__root_ptrEv
00000001002a2df4 T __ZNKSt3__16__treeINS_12__value_typeINS_12basic_stringIcNS_11char_traitsIcEENS_9allocatorIcEEEEN2cu16cu_filelist_itemEEENS_19__map_value_compareIS7_SA_NS_4lessIS7_EELb1EEENS5_ISA_EEE10__root_ptrEv
0000000100283464 T __ZNKSt3__16__treeINS_12__value_typeINS_12basic_stringIcNS_11char_traitsIcEENS_9allocatorIcEEEEN2cu17CPufferInitAction8FileInfoEEENS_19__map_value_compareIS7_SB_NS_4lessIS7_EELb1EEENS5_ISB_EEE10__root_ptrEv
00000001003efff8 T __ZNKSt3__16__treeINS_12__value_typeINS_12basic_stringIcNS_11char_traitsIcEENS_9allocatorIcEEEEN2cu18tagHostIPCacheInfoEEENS_19__map_value_compareIS7_SA_NS_4lessIS7_EELb1EEENS5_ISA_EEE10__root_ptrEv
000000010019ccd4 T __ZNKSt3__16__treeINS_12__value_typeINS_12basic_stringIcNS_11char_traitsIcEENS_9allocatorIcEEEEN6GCloud12AddressCache9CacheItemEEENS_19__map_value_compareIS7_SB_NS_4lessIS7_EELb1EEENS5_ISB_EEE10__root_ptrEv
000000010019526c T __ZNKSt3__16__treeINS_12__value_typeINS_12basic_stringIcNS_11char_traitsIcEENS_9allocatorIcEEEENS_4listIN6pebble3rpc14AddressService18AddrServiceAddressENS5_ISC_EEEEEENS_19__map_value_compareIS7_SF_NS_4lessIS7_EELb1EEENS5_ISF_EEE10__root_ptrEv
00000001003d0b70 T __ZNKSt3__16__treeINS_12__value_typeINS_12basic_stringIcNS_11char_traitsIcEENS_9allocatorIcEEEENS_6vectorIN6apollo9tagipinfoENS5_ISA_EEEEEENS_19__map_value_compareIS7_SD_NS_4lessIS7_EELb1EEENS5_ISD_EEE10__root_ptrEv
00000001002ffd5c T __ZNKSt3__16__treeINS_12__value_typeINS_12basic_stringIcNS_11char_traitsIcEENS_9allocatorIcEEEEPN19cu_resumebrokeninfo22cu_st_resumebrokeninfoEEENS_19__map_value_compareIS7_SB_NS_4lessIS7_EELb1EEENS5_ISB_EEE10__root_ptrEv
00000001002ab618 T __ZNKSt3__16__treeINS_12__value_typeINS_12basic_stringIcNS_11char_traitsIcEENS_9allocatorIcEEEEPN2cu13CCuIFSRestore24_tagRestoreRangeDownInfoEEENS_19__map_value_compareIS7_SC_NS_4lessIS7_EELb1EEENS5_ISC_EEE10__root_ptrEv
00000001002af990 T __ZNKSt3__16__treeINS_12__value_typeINS_12basic_stringIcNS_11char_traitsIcEENS_9allocatorIcEEEEPN2cu15CMemoryTaskFileEEENS_19__map_value_compareIS7_SB_NS_4lessIS7_EELb1EEENS5_ISB_EEE10__root_ptrEv
00000001002f4e2c T __ZNKSt3__16__treeINS_12__value_typeINS_12basic_stringIcNS_11char_traitsIcEENS_9allocatorIcEEEEPN2cu9CuResFileEEENS_19__map_value_compareIS7_SB_NS_4lessIS7_EELb1EEENS5_ISB_EEE10__root_ptrEv
00000001000edda4 T __ZNKSt3__16__treeINS_12__value_typeINS_12basic_stringIcNS_11char_traitsIcEENS_9allocatorIcEEEEPN6GCloud17ConfigureObserverEEENS_19__map_value_compareIS7_SB_NS_4lessIS7_EELb1EEENS5_ISB_EEE10__root_ptrEv
00000001000cb64c T __ZNKSt3__16__treeINS_12__value_typeINS_12basic_stringIcNS_11char_traitsIcEENS_9allocatorIcEEEEPN6GCloud7IPluginEEENS_19__map_value_compareIS7_SB_NS_4lessIS7_EELb1EEENS5_ISB_EEE10__root_ptrEv
00000001002d8610 T __ZNKSt3__16__treeINS_12__value_typeINS_12basic_stringIcNS_11char_traitsIcEENS_9allocatorIcEEEES7_EENS_19__map_value_compareIS7_S8_NS_4lessIS7_EELb1EEENS5_IS8_EEE10__root_ptrEv
00000001002dc600 T __ZNKSt3__16__treeINS_12__value_typeINS_12basic_stringIcNS_11char_traitsIcEENS_9allocatorIcEEEExEENS_19__map_value_compareIS7_S8_NS_4lessIS7_EELb1EEENS5_IS8_EEE10__root_ptrEv
0000000100266f48 T __ZNKSt3__16__treeINS_12__value_typeIiPKcEENS_19__map_value_compareIiS4_NS_4lessIiEELb1EEENS_9allocatorIS4_EEE10__root_ptrEv
000000010031c614 T __ZNKSt3__16__treeINS_12__value_typeIjN13IFSDownloader10error_infoEEENS_19__map_value_compareIjS4_NS_4lessIjEELb1EEENS_9allocatorIS4_EEE10__root_ptrEv
000000010031d6c0 T __ZNKSt3__16__treeINS_12__value_typeIjN13IFSDownloader9task_infoEEENS_19__map_value_compareIjS4_NS_4lessIjEELb1EEENS_9allocatorIS4_EEE10__root_ptrEv
000000010024ee48 T __ZNKSt3__16__treeINS_12__value_typeIjN2cu15CIIPSFileWalker11WALKER_INFOEEENS_19__map_value_compareIjS5_NS_4lessIjEELb1EEENS_9allocatorIS5_EEE10__root_ptrEv
00000001001bf7ec T __ZNKSt3__16__treeINS_12__value_typeIjN6GCloud12AnalysisInfoEEENS_19__map_value_compareIjS4_NS_4lessIjEELb1EEENS_9allocatorIS4_EEE10__root_ptrEv
000000010046c094 T __ZNKSt3__16__treeINS_12__value_typeIjP22cueifs_temp_filehandleEENS_19__map_value_compareIjS4_NS_4lessIjEELb1EEENS_9allocatorIS4_EEE10__root_ptrEv
00000001002d2430 T __ZNKSt3__16__treeINS_12__value_typeIjjEENS_19__map_value_compareIjS2_NS_4lessIjEELb1EEENS_9allocatorIS2_EEE10__root_ptrEv
000000010051c420 T __ZNKSt3__16__treeINS_12__value_typeImPvEENS_19__map_value_compareImS3_NS_4lessImEELb1EEENS_9allocatorIS3_EEE10__root_ptrEv
00000001002de3bc T __ZNKSt3__16__treeINS_12__value_typeIxN2cu17CuResFileDownload20IOSBGDownloadFileGapEEENS_19__map_value_compareIxS5_NS_4lessIxEELb1EEENS_9allocatorIS5_EEE10__root_ptrEv
00000001003d4b18 T __ZNKSt3__16__treeINS_12__value_typeIxN4fund12mtshared_ptrI5CTaskNS2_6memory15_shared_baseptrIS4_Lb0ELb1EEEEEEENS_19__map_value_compareIxS9_NS_4lessIxEELb1EEENS_9allocatorIS9_EEE10__root_ptrEv
000000010029c9c8 T __ZNKSt3__16__treeINS_12__value_typeIxNS_12basic_stringIcNS_11char_traitsIcEENS_9allocatorIcEEEEEENS_19__map_value_compareIxS8_NS_4lessIxEELb1EEENS5_IS8_EEE10__root_ptrEv
0000000100370f00 T __ZNKSt3__16__treeINS_12__value_typeIxPN21version_update_action15task_attributeeEEENS_19__map_value_compareIxS5_NS_4lessIxEELb1EEENS_9allocatorIS5_EEE10__root_ptrEv
0000000100277a90 T __ZNKSt3__16__treeINS_12__value_typeIyN2cu21CPufferDownloadAction13InterTaskInfoEEENS_19__map_value_compareIyS5_NS_4lessIyEELb1EEENS_9allocatorIS5_EEE10__root_ptrEv
00000001001d8224 T __ZNKSt3__16__treeINS_12__value_typeIyN6pebble3rpc12RpcConnector10CobSessionEEENS_19__map_value_compareIyS6_NS_4lessIyEELb1EEENS_9allocatorIS6_EEE10__root_ptrEv
00000001001917ac T __ZNKSt3__16__treeINS_12__value_typeIyN6pebble3rpc14AddressService12QuerySessionEEENS_19__map_value_compareIyS6_NS_4lessIyEELb1EEENS_9allocatorIS6_EEE10__root_ptrEv
00000001001b927c T __ZNKSt3__16__treeINS_12__value_typeIyN6pebble3rpc9transport9MsgBuffer7MessageEEENS_19__map_value_compareIyS7_NS_4lessIyEELb1EEENS_9allocatorIS7_EEE10__root_ptrEv
00000001002d3e14 T __ZNKSt3__16__treeINS_12basic_stringIcNS_11char_traitsIcEENS_9allocatorIcEEEENS_4lessIS6_EENS4_IS6_EEE10__root_ptrEv
0000000100374654 T __ZNKSt3__16__treeINS_12basic_stringIcNS_11char_traitsIcEENS_9allocatorIcEEEENS_4lessIS6_EENS4_IS6_EEE14__count_uniqueIS6_EEmRKT_
0000000100310f70 T __ZNKSt3__16__treeIjNS_4lessIjEENS_9allocatorIjEEE10__root_ptrEv
0000000100310fb8 T __ZNKSt3__16__treeIjNS_4lessIjEENS_9allocatorIjEEE14__count_uniqueIjEEmRKT_
0000000100324d20 T __ZNKSt3__16__treeIxNS_4lessIxEENS_9allocatorIxEEE10__root_ptrEv
0000000100370f48 T __ZNKSt3__16__treeIxNS_4lessIxEENS_9allocatorIxEEE14__count_uniqueIxEEmRKT_
000000010044f8d4 T __ZNKSt3__16__treeIyNS_4lessIyEENS_9allocatorIyEEE10__root_ptrEv
                 U __ZNKSt3__16locale9has_facetERNS0_2idE
                 U __ZNKSt3__16locale9use_facetERNS0_2idE
00000001000c32b8 T __ZNKSt3__16vectorI15_tagGcpDataInfoNS_9allocatorIS1_EEE8max_sizeEv
000000010033e49c T __ZNKSt3__16vectorI17ifs_listfile_itemNS_9allocatorIS1_EEE8max_sizeEv
000000010023668c T __ZNKSt3__16vectorIN2cu14IFSPackageInfoENS_9allocatorIS2_EEE8max_sizeEv
00000001002dae20 T __ZNKSt3__16vectorIN2cu17CuResFileDownload12CuResFileGapENS_9allocatorIS3_EEE8max_sizeEv
00000001002dcf0c T __ZNKSt3__16vectorIN2cu17CuResFileDownload20IOSBGDownloadFileGapENS_9allocatorIS3_EEE8max_sizeEv
0000000100229f88 T __ZNKSt3__16vectorIN2cu19cu_ifspackageconfig20IFSPackageConfigInfoENS_9allocatorIS3_EEE8max_sizeEv
00000001002782b4 T __ZNKSt3__16vectorIN2cu21CPufferDownloadAction11DownTaskMsgENS_9allocatorIS3_EEE8max_sizeEv
000000010023534c T __ZNKSt3__16vectorIN2cu9file_infoENS_9allocatorIS2_EEE8max_sizeEv
00000001000fec10 T __ZNKSt3__16vectorIN5ABase13ANetworkStateENS_9allocatorIS2_EEE8max_sizeEv
00000001000f85c8 T __ZNKSt3__16vectorIN6GCloud4Conn9Connector6ActionENS_9allocatorIS4_EEE8max_sizeEv
00000001003ceec0 T __ZNKSt3__16vectorIN6apollo9tagipinfoENS_9allocatorIS2_EEE8max_sizeEv
00000001001d8a6c T __ZNKSt3__16vectorIN6pebble3rpc12RpcConnector6LBInfoENS_9allocatorIS4_EEE8max_sizeEv
000000010018ea10 T __ZNKSt3__16vectorIN6pebble3rpc14AddressService12QueryRequestENS_9allocatorIS4_EEE8max_sizeEv
0000000100193580 T __ZNKSt3__16vectorIN6pebble3rpc14AddressService12ResponseInfoENS_9allocatorIS4_EEE8max_sizeEv
000000010019e728 T __ZNKSt3__16vectorIN8addr_svr11AddressInfoENS_9allocatorIS2_EEE8max_sizeEv
000000010033a800 T __ZNKSt3__16vectorINS_12basic_stringIcNS_11char_traitsIcEENS_9allocatorIcEEEENS4_IS6_EEE8max_sizeEv
00000001003f87c0 T __ZNKSt3__16vectorIP12HttpDownloadNS_9allocatorIS2_EEE8max_sizeEv
00000001001605cc T __ZNKSt3__16vectorIP9TLISTNODENS_9allocatorIS2_EEE8max_sizeEv
00000001000c24b4 T __ZNKSt3__16vectorIPN6GCloud13ITGcpObserverENS_9allocatorIS3_EEE8max_sizeEv
000000010016f32c T __ZNKSt3__16vectorIPN6GCloud15IQRCodeObserverENS_9allocatorIS3_EEE8max_sizeEv
00000001000ccc7c T __ZNKSt3__16vectorIPN6GCloud16IServiceObserverENS_9allocatorIS3_EEE8max_sizeEv
00000001000fe17c T __ZNKSt3__16vectorIPN6GCloud4Conn9Connector8SendItemENS_9allocatorIS5_EEE8max_sizeEv
000000010016aa94 T __ZNKSt3__16vectorIPN6apollo14cmn_udp_socketENS_9allocatorIS3_EEE8max_sizeEv
000000010021e584 T __ZNKSt3__16vectorIcNS_9allocatorIcEEE8max_sizeEv
0000000100319394 T __ZNKSt3__16vectorIhNS_9allocatorIhEEE8max_sizeEv
0000000100451398 T __ZNKSt3__16vectorIiNS_9allocatorIiEEE8max_sizeEv
00000001002d1708 T __ZNKSt3__16vectorIjNS_9allocatorIjEEE8max_sizeEv
00000001002d98c8 T __ZNKSt3__16vectorIxNS_9allocatorIxEEE8max_sizeEv
00000001001b6160 T __ZNKSt3__18functionIFN6GCloud6ResultEPKhiRKNS1_13RouteInfoBaseEEEclES4_iS7_
00000001001c9718 T __ZNKSt3__18functionIFviPN6pebble3rpc8protocol9TProtocolEEEclEiS5_
0000000100175d00 T __ZNKSt3__18functionIFviPNS_6vectorINS_12basic_stringIcNS_11char_traitsIcEENS_9allocatorIcEEEENS5_IS7_EEEEEEclEiSA_
0000000100350298 T __ZNKSt3__18functionIFviRN15version_service16ResVersionUpdateEEEclEiS3_
00000001002689f8 T __ZNKSt3__18functionIFviRN6puffer15PufferUpdateRspEEEclEiS3_
00000001001c97d0 T __ZNKSt3__18functionIFvvEEclEv
00000001001b63a0 T __ZNKSt3__18functionIFyvEEclEv
                 U __ZNKSt3__18ios_base6getlocEv
                 U __ZNKSt9exception4whatEv
                 U __ZNSaIcEC1Ev
                 U __ZNSaIcED1Ev
                 U __ZNSo3putEc
                 U __ZNSo5writeEPKcl
                 U __ZNSolsEPFRSoS_E
                 U __ZNSolsEd
                 U __ZNSolsEf
                 U __ZNSolsEi
                 U __ZNSolsEj
                 U __ZNSolsEl
                 U __ZNSolsEx
                 U __ZNSolsEy
                 U __ZNSs12_Alloc_hiderC1EPcRKSaIcE
                 U __ZNSs12_S_empty_repEv
                 U __ZNSs13_S_copy_charsEPcS_S_
                 U __ZNSs14_M_replace_auxEmmmc
                 U __ZNSs3endEv
                 U __ZNSs4_Rep10_M_destroyERKSaIcE
                 U __ZNSs4_Rep10_M_refdataEv
                 U __ZNSs4_Rep26_M_set_length_and_sharableEm
                 U __ZNSs4_Rep9_S_createEmmRKSaIcE
                 U __ZNSs5beginEv
                 U __ZNSs5clearEv
                 U __ZNSs5eraseEmm
                 U __ZNSs6appendEPKc
                 U __ZNSs6appendEPKcm
                 U __ZNSs6appendERKSs
                 U __ZNSs6appendERKSsmm
                 U __ZNSs6appendEmc
                 U __ZNSs6assignEPKc
                 U __ZNSs6assignEPKcm
                 U __ZNSs6assignERKSs
                 U __ZNSs6resizeEm
                 U __ZNSs6resizeEmc
                 U __ZNSs7replaceEN9__gnu_cxx17__normal_iteratorIPcSsEES2_PKcS4_
                 U __ZNSs7reserveEm
                 U __ZNSs9push_backEc
                 U __ZNSsC1EPKcRKSaIcE
                 U __ZNSsC1EPKcmRKSaIcE
                 U __ZNSsC1ERKSs
                 U __ZNSsC1Ev
                 U __ZNSsD1Ev
                 U __ZNSsaSEPKc
                 U __ZNSsaSERKSs
                 U __ZNSsixEm
                 U __ZNSspLEPKc
                 U __ZNSspLERKSs
                 U __ZNSspLEc
                 U __ZNSt11logic_errorC2EPKc
                 U __ZNSt11logic_errorD2Ev
                 U __ZNSt13exception_ptrC1ERKS_
                 U __ZNSt13exception_ptrD1Ev
                 U __ZNSt13runtime_errorC1EPKc
                 U __ZNSt13runtime_errorC2ERKS_
                 U __ZNSt13runtime_errorD1Ev
                 U __ZNSt13runtime_errorD2Ev
                 U __ZNSt15_List_node_base4hookEPS_
                 U __ZNSt15_List_node_base6unhookEv
                 U __ZNSt18basic_stringstreamIcSt11char_traitsIcESaIcEEC1ESt13_Ios_Openmode
                 U __ZNSt18basic_stringstreamIcSt11char_traitsIcESaIcEED1Ev
                 U __ZNSt19basic_ostringstreamIcSt11char_traitsIcESaIcEEC1ESt13_Ios_Openmode
                 U __ZNSt19basic_ostringstreamIcSt11char_traitsIcESaIcEED1Ev
00000001002f513c T __ZNSt3__110__find_endIPFbccEPKcS4_EET0_S5_S5_T1_S6_T_NS_26random_access_iterator_tagES8_
0000000100476128 T __ZNSt3__110__list_impI18binary_file_packerNS_9allocatorIS1_EEE5clearEv
000000010030393c T __ZNSt3__110__list_impI18download_list_itemNS_9allocatorIS1_EEE5clearEv
00000001000c0594 T __ZNSt3__110__list_impI7AStringNS_9allocatorIS1_EEE5clearEv
00000001004333c0 T __ZNSt3__110__list_impI7seg_infNS_9allocatorIS1_EEE5clearEv
000000010031e5cc T __ZNSt3__110__list_impI9file_infoNS_9allocatorIS1_EEE5clearEv
0000000100294bdc T __ZNSt3__110__list_impIN2cu15_tagActionErrorENS_9allocatorIS2_EEE5clearEv
0000000100294804 T __ZNSt3__110__list_impIN2cu18_tagActionProgressENS_9allocatorIS2_EEE5clearEv
0000000100415b14 T __ZNSt3__110__list_impIN4fund12mtshared_ptrI5CTaskNS1_6memory15_shared_baseptrIS3_Lb0ELb1EEEEENS_9allocatorIS7_EEE4swapERSA_
00000001003e6a18 T __ZNSt3__110__list_impIN4fund12mtshared_ptrI5CTaskNS1_6memory15_shared_baseptrIS3_Lb0ELb1EEEEENS_9allocatorIS7_EEE5clearEv
000000010018d264 T __ZNSt3__110__list_impIN6pebble3rpc14AddressService18AddrServiceAddressENS_9allocatorIS4_EEE5clearEv
00000001000dd68c T __ZNSt3__110__list_impINS_12basic_stringIcNS_11char_traitsIcEENS_9allocatorIcEEEENS4_IS6_EEE5clearEv
00000001003e6cb8 T __ZNSt3__110__list_impIP10ITaskEventNS_9allocatorIS2_EEE5clearEv
00000001003189a4 T __ZNSt3__110__list_impIP10TFileEntryNS_9allocatorIS2_EEE5clearEv
00000001003e740c T __ZNSt3__110__list_impIP11ITaskRunnerNS_9allocatorIS2_EEE5clearEv
0000000100400b84 T __ZNSt3__110__list_impIP13PRIORITYELMNTNS_9allocatorIS2_EEE4swapERS5_
00000001004009b0 T __ZNSt3__110__list_impIP13PRIORITYELMNTNS_9allocatorIS2_EEE5clearEv
00000001002d05fc T __ZNSt3__110__list_impIP4CBufNS_9allocatorIS2_EEE5clearEv
000000010029442c T __ZNSt3__110__list_impIPN2cu13IActionResultENS_9allocatorIS3_EEE5clearEv
00000001002765c8 T __ZNSt3__110__list_impIPN2cu14IDownActionMsgENS_9allocatorIS3_EEE4swapERS6_
00000001002763a4 T __ZNSt3__110__list_impIPN2cu14IDownActionMsgENS_9allocatorIS3_EEE5clearEv
0000000100297f1c T __ZNSt3__110__list_impIPN2cu17IAppCallbackEventENS_9allocatorIS3_EEE5clearEv
000000010037e03c T __ZNSt3__110__list_impIPN2cu17action_descriptorENS_9allocatorIS3_EEE5clearEv
0000000100224ae0 T __ZNSt3__110__list_impIPN2cu17data_callback_mgr12IDownloadMsgENS_9allocatorIS4_EEE5clearEv
000000010026d0a0 T __ZNSt3__110__list_impIPN2cu19IPufferActionResultENS_9allocatorIS3_EEE4swapERS6_
000000010026cecc T __ZNSt3__110__list_impIPN2cu19IPufferActionResultENS_9allocatorIS3_EEE5clearEv
0000000100254c5c T __ZNSt3__110__list_impIPN2cu20IPreDownloadInterMsgENS_9allocatorIS3_EEE5clearEv
000000010026d34c T __ZNSt3__110__list_impIPN2cu24IPufferActionCallBackMsgENS_9allocatorIS3_EEE4swapERS6_
000000010026cc90 T __ZNSt3__110__list_impIPN2cu24IPufferActionCallBackMsgENS_9allocatorIS3_EEE5clearEv
00000001002982f4 T __ZNSt3__110__list_impIPN2cu7IActionENS_9allocatorIS3_EEE5clearEv
00000001004506c8 T __ZNSt3__110__list_impIPcNS_9allocatorIS1_EEE5clearEv
000000010024b5ac T __ZNSt3__110__list_impIjNS_9allocatorIjEEE5clearEv
                 U __ZNSt3__110istrstreamD1Ev
00000001002d5fb4 T __ZNSt3__111__tree_leafIPNS_16__tree_node_baseIPvEEEET_S5_
00000001002da5e8 T __ZNSt3__111__tree_nextIPNS_16__tree_node_baseIPvEEEET_S5_
000000010033ce58 T __ZNSt3__111char_traitsIcE11eq_int_typeEii
000000010033ce44 T __ZNSt3__111char_traitsIcE11to_int_typeEc
000000010033cea8 T __ZNSt3__111char_traitsIcE12to_char_typeEi
000000010033ce80 T __ZNSt3__111char_traitsIcE2eqEcc
000000010033c9f4 T __ZNSt3__111char_traitsIcE3eofEv
000000010033f034 T __ZNSt3__111char_traitsIcE4findEPKcmRS2_
000000010033eef8 T __ZNSt3__111char_traitsIcE6assignERcRKc
0000000100427c18 T __ZNSt3__111char_traitsIcE6lengthEPKc
000000010033f0a8 T __ZNSt3__111char_traitsIcE7compareEPKcS3_m
0000000100409be4 T __ZNSt3__112__deque_baseIN12SpeedCounter6SampleENS_9allocatorIS2_EEE3endEv
0000000100409ae8 T __ZNSt3__112__deque_baseIN12SpeedCounter6SampleENS_9allocatorIS2_EEE5beginEv
000000010040981c T __ZNSt3__112__deque_baseIN12SpeedCounter6SampleENS_9allocatorIS2_EEE5clearEv
000000010033af38 T __ZNSt3__112__deque_baseIN7cu_Json6Reader9ErrorInfoENS_9allocatorIS3_EEE3endEv
000000010033ae3c T __ZNSt3__112__deque_baseIN7cu_Json6Reader9ErrorInfoENS_9allocatorIS3_EEE5beginEv
000000010033ab64 T __ZNSt3__112__deque_baseIN7cu_Json6Reader9ErrorInfoENS_9allocatorIS3_EEE5clearEv
00000001000d7070 T __ZNSt3__112__deque_baseIN8cu_event15cu_wfmo_info_t_ENS_9allocatorIS2_EEE3endEv
00000001000d6f80 T __ZNSt3__112__deque_baseIN8cu_event15cu_wfmo_info_t_ENS_9allocatorIS2_EEE5beginEv
00000001000d6cb8 T __ZNSt3__112__deque_baseIN8cu_event15cu_wfmo_info_t_ENS_9allocatorIS2_EEE5clearEv
00000001001af940 T __ZNSt3__112__deque_baseINS_10shared_ptrIN6pebble3rpc8protocol12TJSONContextEEENS_9allocatorIS6_EEE3endEv
00000001001af850 T __ZNSt3__112__deque_baseINS_10shared_ptrIN6pebble3rpc8protocol12TJSONContextEEENS_9allocatorIS6_EEE5beginEv
00000001001af57c T __ZNSt3__112__deque_baseINS_10shared_ptrIN6pebble3rpc8protocol12TJSONContextEEENS_9allocatorIS6_EEE5clearEv
000000010033b62c T __ZNSt3__112__deque_baseIPN7cu_Json5ValueENS_9allocatorIS3_EEE3endEv
000000010033b53c T __ZNSt3__112__deque_baseIPN7cu_Json5ValueENS_9allocatorIS3_EEE5beginEv
000000010033b274 T __ZNSt3__112__deque_baseIPN7cu_Json5ValueENS_9allocatorIS3_EEE5clearEv
000000010040a200 T __ZNSt3__112__deque_baseImNS_9allocatorImEEE3endEv
000000010040a110 T __ZNSt3__112__deque_baseImNS_9allocatorImEEE5beginEv
0000000100409e48 T __ZNSt3__112__deque_baseImNS_9allocatorImEEE5clearEv
                 U __ZNSt3__112__next_primeEm
                 U __ZNSt3__112bad_weak_ptrD1Ev
                 U __ZNSt3__112basic_stringIcNS_11char_traitsIcEENS_9allocatorIcEEE5eraseEmm
                 U __ZNSt3__112basic_stringIcNS_11char_traitsIcEENS_9allocatorIcEEE6__initEPKcm
                 U __ZNSt3__112basic_stringIcNS_11char_traitsIcEENS_9allocatorIcEEE6__initEPKcmm
                 U __ZNSt3__112basic_stringIcNS_11char_traitsIcEENS_9allocatorIcEEE6__initEmc
0000000100142d2c T __ZNSt3__112basic_stringIcNS_11char_traitsIcEENS_9allocatorIcEEE6__initIPKcEENS_9enable_ifIXsr21__is_forward_iteratorIT_EE5valueEvE4typeESA_SA_
0000000100433fa0 T __ZNSt3__112basic_stringIcNS_11char_traitsIcEENS_9allocatorIcEEE6__initIPcEENS_9enable_ifIXsr21__is_forward_iteratorIT_EE5valueEvE4typeES9_S9_
                 U __ZNSt3__112basic_stringIcNS_11char_traitsIcEENS_9allocatorIcEEE6appendEPKc
                 U __ZNSt3__112basic_stringIcNS_11char_traitsIcEENS_9allocatorIcEEE6appendEPKcm
                 U __ZNSt3__112basic_stringIcNS_11char_traitsIcEENS_9allocatorIcEEE6assignEPKc
                 U __ZNSt3__112basic_stringIcNS_11char_traitsIcEENS_9allocatorIcEEE6assignEPKcm
                 U __ZNSt3__112basic_stringIcNS_11char_traitsIcEENS_9allocatorIcEEE6insertEmPKc
                 U __ZNSt3__112basic_stringIcNS_11char_traitsIcEENS_9allocatorIcEEE6resizeEmc
                 U __ZNSt3__112basic_stringIcNS_11char_traitsIcEENS_9allocatorIcEEE7replaceEmmPKc
                 U __ZNSt3__112basic_stringIcNS_11char_traitsIcEENS_9allocatorIcEEE7replaceEmmPKcm
                 U __ZNSt3__112basic_stringIcNS_11char_traitsIcEENS_9allocatorIcEEE7reserveEm
                 U __ZNSt3__112basic_stringIcNS_11char_traitsIcEENS_9allocatorIcEEE9push_backEc
                 U __ZNSt3__112basic_stringIcNS_11char_traitsIcEENS_9allocatorIcEEEC1ERKS5_
                 U __ZNSt3__112basic_stringIcNS_11char_traitsIcEENS_9allocatorIcEEEC1ERKS5_mmRKS4_
                 U __ZNSt3__112basic_stringIcNS_11char_traitsIcEENS_9allocatorIcEEED1Ev
                 U __ZNSt3__112basic_stringIcNS_11char_traitsIcEENS_9allocatorIcEEED2Ev
                 U __ZNSt3__112basic_stringIcNS_11char_traitsIcEENS_9allocatorIcEEEaSERKS5_
                 U __ZNSt3__112strstreambufC1EPKcl
00000001003fcfe8 T __ZNSt3__113__lower_boundIRPFbPK11ITaskRunnerS3_ENS_15__list_iteratorIPS1_PvEES8_EET0_SB_SB_RKT1_T_
00000001002d9e5c T __ZNSt3__113__tree_removeIPNS_16__tree_node_baseIPvEEEEvT_S5_
000000010033cd1c T __ZNSt3__113basic_filebufIcNS_11char_traitsIcEEE11__read_modeEv
000000010033cec0 T __ZNSt3__113basic_filebufIcNS_11char_traitsIcEEE12__write_modeEv
000000010033cff0 T __ZNSt3__113basic_filebufIcNS_11char_traitsIcEEE4openEPKcj
000000010033c9fc T __ZNSt3__113basic_filebufIcNS_11char_traitsIcEEE5closeEv
                 U __ZNSt3__113basic_istreamIcNS_11char_traitsIcEEE6sentryC1ERS3_b
                 U __ZNSt3__113basic_istreamIcNS_11char_traitsIcEEED2Ev
                 U __ZNSt3__113basic_istreamIcNS_11char_traitsIcEEErsERb
                 U __ZNSt3__113basic_istreamIcNS_11char_traitsIcEEErsERd
                 U __ZNSt3__113basic_istreamIcNS_11char_traitsIcEEErsERy
                 U __ZNSt3__113basic_ostreamIcNS_11char_traitsIcEEE6sentryC1ERS3_
                 U __ZNSt3__113basic_ostreamIcNS_11char_traitsIcEEE6sentryD1Ev
                 U __ZNSt3__113basic_ostreamIcNS_11char_traitsIcEEED2Ev
                 U __ZNSt3__113basic_ostreamIcNS_11char_traitsIcEEElsEb
                 U __ZNSt3__113basic_ostreamIcNS_11char_traitsIcEEElsEd
                 U __ZNSt3__113basic_ostreamIcNS_11char_traitsIcEEElsEs
                 U __ZNSt3__113basic_ostreamIcNS_11char_traitsIcEEElsEt
000000010040d31c T __ZNSt3__113move_backwardIN12SpeedCounter6SampleEPS2_RS2_PS3_lLl170ES2_S3_S4_S5_lLl170EEENS_16__deque_iteratorIT5_T6_T7_T8_T9_XT10_EEENS6_IT_T0_T1_T2_T3_XT4_EEESI_SC_
00000001000d7194 T __ZNSt3__113move_backwardIN8cu_event15cu_wfmo_info_t_EPS2_RS2_PS3_lLl256ES2_S3_S4_S5_lLl256EEENS_16__deque_iteratorIT5_T6_T7_T8_T9_XT10_EEENS6_IT_T0_T1_T2_T3_XT4_EEESI_SC_
000000010040d98c T __ZNSt3__113move_backwardIPN12SpeedCounter6SampleES2_S3_RS2_PS3_lLl170EEENS_16__deque_iteratorIT0_T1_T2_T3_T4_XT5_EEET_SD_SC_PNS_9enable_ifIXsr27__is_random_access_iteratorISD_EE5valueEvE4typeE
00000001000d77f4 T __ZNSt3__113move_backwardIPN8cu_event15cu_wfmo_info_t_ES2_S3_RS2_PS3_lLl256EEENS_16__deque_iteratorIT0_T1_T2_T3_T4_XT5_EEET_SD_SC_PNS_9enable_ifIXsr27__is_random_access_iteratorISD_EE5valueEvE4typeE
0000000100234a4c T __ZNSt3__114__split_bufferIN2cu9file_infoERNS_9allocatorIS2_EEE18__construct_at_endEm
000000010019ebe0 T __ZNSt3__114__split_bufferIN8addr_svr11AddressInfoERNS_9allocatorIS2_EEE18__construct_at_endEm
000000010036deb0 T __ZNSt3__114__split_bufferINS_12basic_stringIcNS_11char_traitsIcEENS_9allocatorIcEEEERNS4_IS6_EEE18__construct_at_endEm
0000000100197c34 T __ZNSt3__114__split_bufferINS_12basic_stringIcNS_11char_traitsIcEENS_9allocatorIcEEEERNS4_IS6_EEE18__construct_at_endINS_11__wrap_iterIPS6_EEEENS_9enable_ifIXsr21__is_forward_iteratorIT_EE5valueEvE4typeESF_SF_
00000001001978a8 T __ZNSt3__114__split_bufferINS_12basic_stringIcNS_11char_traitsIcEENS_9allocatorIcEEEERNS4_IS6_EEE18__construct_at_endINS_13move_iteratorIPS6_EEEENS_9enable_ifIXsr21__is_forward_iteratorIT_EE5valueEvE4typeESF_SF_
0000000100196994 T __ZNSt3__114__split_bufferINS_12basic_stringIcNS_11char_traitsIcEENS_9allocatorIcEEEERNS4_IS6_EEE9push_backEOS6_
000000010040bf2c T __ZNSt3__114__split_bufferIPN12SpeedCounter6SampleENS_9allocatorIS3_EEE10push_frontEOS3_
000000010040b9e4 T __ZNSt3__114__split_bufferIPN12SpeedCounter6SampleENS_9allocatorIS3_EEE9push_backEOS3_
000000010040ca30 T __ZNSt3__114__split_bufferIPN12SpeedCounter6SampleERNS_9allocatorIS3_EEE10push_frontERKS3_
000000010040cf98 T __ZNSt3__114__split_bufferIPN12SpeedCounter6SampleERNS_9allocatorIS3_EEE18__construct_at_endINS_13move_iteratorIPS3_EEEENS_9enable_ifIXsr21__is_forward_iteratorIT_EE5valueEvE4typeESD_SD_
000000010040c4e4 T __ZNSt3__114__split_bufferIPN12SpeedCounter6SampleERNS_9allocatorIS3_EEE9push_backEOS3_
000000010013762c T __ZNSt3__114__split_bufferIPN7cu_Json6Reader9ErrorInfoENS_9allocatorIS4_EEE10push_frontEOS4_
00000001001370e4 T __ZNSt3__114__split_bufferIPN7cu_Json6Reader9ErrorInfoENS_9allocatorIS4_EEE9push_backEOS4_
0000000100138130 T __ZNSt3__114__split_bufferIPN7cu_Json6Reader9ErrorInfoERNS_9allocatorIS4_EEE10push_frontERKS4_
0000000100138698 T __ZNSt3__114__split_bufferIPN7cu_Json6Reader9ErrorInfoERNS_9allocatorIS4_EEE18__construct_at_endINS_13move_iteratorIPS4_EEEENS_9enable_ifIXsr21__is_forward_iteratorIT_EE5valueEvE4typeESE_SE_
0000000100137be4 T __ZNSt3__114__split_bufferIPN7cu_Json6Reader9ErrorInfoERNS_9allocatorIS4_EEE9push_backEOS4_
00000001000d99e4 T __ZNSt3__114__split_bufferIPN8cu_event15cu_wfmo_info_t_ENS_9allocatorIS3_EEE10push_frontEOS3_
00000001000d949c T __ZNSt3__114__split_bufferIPN8cu_event15cu_wfmo_info_t_ENS_9allocatorIS3_EEE9push_backEOS3_
00000001000da4e8 T __ZNSt3__114__split_bufferIPN8cu_event15cu_wfmo_info_t_ERNS_9allocatorIS3_EEE10push_frontERKS3_
00000001000daa50 T __ZNSt3__114__split_bufferIPN8cu_event15cu_wfmo_info_t_ERNS_9allocatorIS3_EEE18__construct_at_endINS_13move_iteratorIPS3_EEEENS_9enable_ifIXsr21__is_forward_iteratorIT_EE5valueEvE4typeESD_SD_
00000001000d9f9c T __ZNSt3__114__split_bufferIPN8cu_event15cu_wfmo_info_t_ERNS_9allocatorIS3_EEE9push_backEOS3_
00000001001b232c T __ZNSt3__114__split_bufferIPNS_10shared_ptrIN6pebble3rpc8protocol12TJSONContextEEENS_9allocatorIS7_EEE10push_frontEOS7_
00000001001b1de4 T __ZNSt3__114__split_bufferIPNS_10shared_ptrIN6pebble3rpc8protocol12TJSONContextEEENS_9allocatorIS7_EEE9push_backEOS7_
00000001001b2e30 T __ZNSt3__114__split_bufferIPNS_10shared_ptrIN6pebble3rpc8protocol12TJSONContextEEERNS_9allocatorIS7_EEE10push_frontERKS7_
00000001001b3398 T __ZNSt3__114__split_bufferIPNS_10shared_ptrIN6pebble3rpc8protocol12TJSONContextEEERNS_9allocatorIS7_EEE18__construct_at_endINS_13move_iteratorIPS7_EEEENS_9enable_ifIXsr21__is_forward_iteratorIT_EE5valueEvE4typeESH_SH_
00000001001b28e4 T __ZNSt3__114__split_bufferIPNS_10shared_ptrIN6pebble3rpc8protocol12TJSONContextEEERNS_9allocatorIS7_EEE9push_backEOS7_
000000010013470c T __ZNSt3__114__split_bufferIPPN7cu_Json5ValueENS_9allocatorIS4_EEE10push_frontEOS4_
00000001001341c4 T __ZNSt3__114__split_bufferIPPN7cu_Json5ValueENS_9allocatorIS4_EEE9push_backEOS4_
0000000100135210 T __ZNSt3__114__split_bufferIPPN7cu_Json5ValueERNS_9allocatorIS4_EEE10push_frontERKS4_
0000000100135778 T __ZNSt3__114__split_bufferIPPN7cu_Json5ValueERNS_9allocatorIS4_EEE18__construct_at_endINS_13move_iteratorIPS4_EEEENS_9enable_ifIXsr21__is_forward_iteratorIT_EE5valueEvE4typeESE_SE_
0000000100134cc4 T __ZNSt3__114__split_bufferIPPN7cu_Json5ValueERNS_9allocatorIS4_EEE9push_backEOS4_
000000010040fb78 T __ZNSt3__114__split_bufferIPmNS_9allocatorIS1_EEE10push_frontEOS1_
000000010040f630 T __ZNSt3__114__split_bufferIPmNS_9allocatorIS1_EEE9push_backEOS1_
000000010041067c T __ZNSt3__114__split_bufferIPmRNS_9allocatorIS1_EEE10push_frontERKS1_
0000000100410be4 T __ZNSt3__114__split_bufferIPmRNS_9allocatorIS1_EEE18__construct_at_endINS_13move_iteratorIPS1_EEEENS_9enable_ifIXsr21__is_forward_iteratorIT_EE5valueEvE4typeESB_SB_
0000000100410130 T __ZNSt3__114__split_bufferIPmRNS_9allocatorIS1_EEE9push_backEOS1_
000000010021e094 T __ZNSt3__114__split_bufferIcRNS_9allocatorIcEEE18__construct_at_endEm
0000000100318ed8 T __ZNSt3__114__split_bufferIhRNS_9allocatorIhEEE18__construct_at_endEm
000000010036d988 T __ZNSt3__114__split_bufferIiRNS_9allocatorIiEEE18__construct_at_endEmRKi
000000010033b768 T __ZNSt3__114basic_ifstreamIcNS_11char_traitsIcEEE4openEPKcj
                 U __ZNSt3__114basic_iostreamIcNS_11char_traitsIcEEED0Ev
                 U __ZNSt3__114basic_iostreamIcNS_11char_traitsIcEEED1Ev
                 U __ZNSt3__114basic_iostreamIcNS_11char_traitsIcEEED2Ev
00000001002ec4c0 T __ZNSt3__114basic_ofstreamIcNS_11char_traitsIcEEE4openEPKcj
                 U __ZNSt3__115basic_streambufIcNS_11char_traitsIcEEEC2Ev
                 U __ZNSt3__115basic_streambufIcNS_11char_traitsIcEEED2Ev
000000010044475c T __ZNSt3__115basic_stringbufIcNS_11char_traitsIcEENS_9allocatorIcEEE3strERKNS_12basic_stringIcS2_S4_EE
00000001001d2c70 T __ZNSt3__118__insertion_sort_3IRNS_6__lessINS_12basic_stringIcNS_11char_traitsIcEENS_9allocatorIcEEEES7_EEPS7_EEvT0_SB_T_
000000010033ef1c T __ZNSt3__118__search_substringIcNS_11char_traitsIcEEEEPKT_S5_S5_S5_S5_
00000001002d27d8 T __ZNSt3__118__tree_left_rotateIPNS_16__tree_node_baseIPvEEEEvT_
                 U __ZNSt3__119__shared_weak_count10__add_weakEv
                 U __ZNSt3__119__shared_weak_count12__add_sharedEv
                 U __ZNSt3__119__shared_weak_count14__release_weakEv
                 U __ZNSt3__119__shared_weak_count16__release_sharedEv
                 U __ZNSt3__119__shared_weak_count4lockEv
                 U __ZNSt3__119__shared_weak_countD2Ev
00000001002d28c8 T __ZNSt3__119__tree_right_rotateIPNS_16__tree_node_baseIPvEEEEvT_
00000001002f351c T __ZNSt3__124__put_character_sequenceIcNS_11char_traitsIcEEEERNS_13basic_ostreamIT_T0_EES7_PKS4_m
00000001001d3b44 T __ZNSt3__127__insertion_sort_incompleteIRNS_6__lessINS_12basic_stringIcNS_11char_traitsIcEENS_9allocatorIcEEEES7_EEPS7_EEbT0_SB_T_
00000001002d2478 T __ZNSt3__127__tree_balance_after_insertIPNS_16__tree_node_baseIPvEEEEvT_S5_
00000001001ba568 T __ZNSt3__128__invoke_void_return_wrapperIN6GCloud6ResultEE6__callIJRNS_6__bindIMNS1_13IConnectorOldEFiPKhiRKNS1_13RouteInfoBaseEEJRPS6_RKNS_12placeholders4__phILi1EEERKNSH_ILi2EEERKNSH_ILi3EEEEEES8_iSB_EEES2_DpOT_
0000000100352400 T __ZNSt3__128__invoke_void_return_wrapperIvE6__callIJRNS_6__bindIMN15version_service19VersionUpdateClientEFviPN6pebble3rpc8protocol9TProtocolENS_8functionIFviRNS4_16ResVersionUpdateEEEEEJPS5_RKNS_12placeholders4__phILi1EEERKNSK_ILi2EEERSF_EEEiSA_EEEvDpOT_
00000001002847d4 T __ZNSt3__128__invoke_void_return_wrapperIvE6__callIJRNS_6__bindIMN2cu17CPufferInitActionEFviRN6puffer15PufferUpdateRspEEJPS5_RKNS_12placeholders4__phILi1EEERKNSD_ILi2EEEEEEiS8_EEEvDpOT_
00000001000c6140 T __ZNSt3__128__invoke_void_return_wrapperIvE6__callIJRNS_6__bindIMN6GCloud19CDefaultNameServiceEFviPNS_6vectorINS_12basic_stringIcNS_11char_traitsIcEENS_9allocatorIcEEEENSA_ISC_EEEEEJPS5_RKNS_12placeholders4__phILi1EEERKNSK_ILi2EEEEEEiSF_EEEvDpOT_
00000001001dabd0 T __ZNSt3__128__invoke_void_return_wrapperIvE6__callIJRNS_6__bindIMN6pebble3rpc12RpcConnectorEFvbEJPS6_RKNS_12placeholders4__phILi1EEEEEEbEEEvDpOT_
00000001001dc700 T __ZNSt3__128__invoke_void_return_wrapperIvE6__callIJRNS_6__bindIMN6pebble3rpc12RpcConnectorEFviPNS_6vectorINS_12basic_stringIcNS_11char_traitsIcEENS_9allocatorIcEEEENSB_ISD_EEEEEJPS6_RKNS_12placeholders4__phILi1EEERKNSL_ILi2EEEEEEiSG_EEEvDpOT_
00000001001d7224 T __ZNSt3__128__invoke_void_return_wrapperIvE6__callIJRNS_6__bindIMN6pebble3rpc9transport9MsgBufferEFvyEJRPS7_yEEEEEEvDpOT_
000000010026ae78 T __ZNSt3__128__invoke_void_return_wrapperIvE6__callIJRNS_6__bindIMN6puffer25PufferUpdateServiceClientEFviPN6pebble3rpc8protocol9TProtocolENS_8functionIFviRNS4_15PufferUpdateRspEEEEEJPS5_RKNS_12placeholders4__phILi1EEERKNSK_ILi2EEERSF_EEEiSA_EEEvDpOT_
000000010034a534 T __ZNSt3__128__invoke_void_return_wrapperIvE6__callIJRNS_6__bindIMN7dolphin25gcloud_version_action_impEFviRN15version_service16ResVersionUpdateEEJPS5_RKNS_12placeholders4__phILi1EEERKNSD_ILi2EEEEEEiS8_EEEvDpOT_
00000001001ddb30 T __ZNSt3__128__invoke_void_return_wrapperIyE6__callIJRNS_6__bindIMN6pebble3rpc12RpcConnectorEFyvEJPS6_EEEEEEyDpOT_
00000001001907f4 T __ZNSt3__128__invoke_void_return_wrapperIyE6__callIJRNS_6__bindIMN6pebble3rpc14AddressServiceEFyvEJPS6_EEEEEEyDpOT_
00000001000b8964 T __ZNSt3__13mapI9TGCPStateiNS_4lessIS1_EENS_9allocatorINS_4pairIKS1_iEEEEEixEOS1_
0000000100182c24 T __ZNSt3__13mapINS_12basic_stringIcNS_11char_traitsIcEENS_9allocatorIcEEEENS_4listIN6pebble3rpc14AddressService18AddrServiceAddressENS4_ISB_EEEENS_4lessIS6_EENS4_INS_4pairIKS6_SD_EEEEEixERSH_
00000001003cd37c T __ZNSt3__13mapINS_12basic_stringIcNS_11char_traitsIcEENS_9allocatorIcEEEENS_6vectorIN6apollo9tagipinfoENS4_IS9_EEEENS_4lessIS6_EENS4_INS_4pairIKS6_SB_EEEEEixERSF_
00000001002f2704 T __ZNSt3__13mapINS_12basic_stringIcNS_11char_traitsIcEENS_9allocatorIcEEEES6_NS_4lessIS6_EENS4_INS_4pairIKS6_S6_EEEEEixERSA_
000000010031a98c T __ZNSt3__13mapIjN13IFSDownloader10error_infoENS_4lessIjEENS_9allocatorINS_4pairIKjS2_EEEEEixEOj
000000010031c690 T __ZNSt3__13mapIjN13IFSDownloader9task_infoENS_4lessIjEENS_9allocatorINS_4pairIKjS2_EEEEEixERS7_
00000001001bcca0 T __ZNSt3__13mapIjN6GCloud12AnalysisInfoENS_4lessIjEENS_9allocatorINS_4pairIKjS2_EEEEEixERS7_
00000001002bbccc T __ZNSt3__13mapIjjNS_4lessIjEENS_9allocatorINS_4pairIKjjEEEEEixERS5_
000000010051abc8 T __ZNSt3__13mapImPvNS_4lessImEENS_9allocatorINS_4pairIKmS1_EEEEEixERS6_
00000001002c94a0 T __ZNSt3__13mapIxN2cu17CuResFileDownload20IOSBGDownloadFileGapENS_4lessIxEENS_9allocatorINS_4pairIKxS3_EEEEEixERS8_
000000010036f944 T __ZNSt3__13mapIxPN21version_update_action15task_attributeeENS_4lessIxEENS_9allocatorINS_4pairIKxS3_EEEEEixERS8_
00000001001c6f64 T __ZNSt3__13mapIyN6pebble3rpc12RpcConnector10CobSessionENS_4lessIyEENS_9allocatorINS_4pairIKyS4_EEEEEixEOy
000000010017f244 T __ZNSt3__13mapIyN6pebble3rpc14AddressService12QuerySessionENS_4lessIyEENS_9allocatorINS_4pairIKyS4_EEEEEixEOy
000000010017f05c T __ZNSt3__13mapIyN6pebble3rpc14AddressService12QuerySessionENS_4lessIyEENS_9allocatorINS_4pairIKyS4_EEEEEixERS9_
00000001001b627c T __ZNSt3__13mapIyN6pebble3rpc9transport9MsgBuffer7MessageENS_4lessIyEENS_9allocatorINS_4pairIKyS5_EEEEEixEOy
000000010043055c T __ZNSt3__14listI18binary_file_packerNS_9allocatorIS1_EEE9push_backERKS1_
00000001003051c8 T __ZNSt3__14listI18download_list_itemNS_9allocatorIS1_EEE9push_backERKS1_
00000001002203ec T __ZNSt3__14listI7AStringNS_9allocatorIS1_EEE10push_frontERKS1_
00000001000c0d48 T __ZNSt3__14listI7AStringNS_9allocatorIS1_EEE8pop_backEv
00000001002cc240 T __ZNSt3__14listI7seg_infNS_9allocatorIS1_EEE10push_frontERKS1_
00000001002ccdb0 T __ZNSt3__14listI7seg_infNS_9allocatorIS1_EEE5eraseENS_21__list_const_iteratorIS1_PvEE
00000001002cc784 T __ZNSt3__14listI7seg_infNS_9allocatorIS1_EEE6insertENS_21__list_const_iteratorIS1_PvEERKS1_
00000001002cb200 T __ZNSt3__14listI7seg_infNS_9allocatorIS1_EEE9push_backERKS1_
0000000100304920 T __ZNSt3__14listI9file_infoNS_9allocatorIS1_EEE9push_backERKS1_
0000000100296124 T __ZNSt3__14listIN2cu15_tagActionErrorENS_9allocatorIS2_EEE9pop_frontEv
00000001002962e8 T __ZNSt3__14listIN2cu15_tagActionErrorENS_9allocatorIS2_EEE9push_backERKS2_
0000000100295fdc T __ZNSt3__14listIN2cu18_tagActionProgressENS_9allocatorIS2_EEE9pop_frontEv
0000000100296908 T __ZNSt3__14listIN2cu18_tagActionProgressENS_9allocatorIS2_EEE9push_backERKS2_
0000000100415134 T __ZNSt3__14listIN4fund12mtshared_ptrI5CTaskNS1_6memory15_shared_baseptrIS3_Lb0ELb1EEEEENS_9allocatorIS7_EEE5eraseENS_21__list_const_iteratorIS7_PvEE
00000001003e03b8 T __ZNSt3__14listIN4fund12mtshared_ptrI5CTaskNS1_6memory15_shared_baseptrIS3_Lb0ELb1EEEEENS_9allocatorIS7_EEE9push_backEOS7_
0000000100411f60 T __ZNSt3__14listIN4fund12mtshared_ptrI5CTaskNS1_6memory15_shared_baseptrIS3_Lb0ELb1EEEEENS_9allocatorIS7_EEE9push_backERKS7_
00000001001846a8 T __ZNSt3__14listIN6pebble3rpc14AddressService18AddrServiceAddressENS_9allocatorIS4_EEE10push_frontERKS4_
0000000100184510 T __ZNSt3__14listIN6pebble3rpc14AddressService18AddrServiceAddressENS_9allocatorIS4_EEE5eraseENS_21__list_const_iteratorIS4_PvEE
00000001001962d0 T __ZNSt3__14listIN6pebble3rpc14AddressService18AddrServiceAddressENS_9allocatorIS4_EEE5eraseENS_21__list_const_iteratorIS4_PvEESA_
00000001001952b4 T __ZNSt3__14listIN6pebble3rpc14AddressService18AddrServiceAddressENS_9allocatorIS4_EEE6assignINS_21__list_const_iteratorIS4_PvEEEEvT_SC_PNS_9enable_ifIXsr19__is_input_iteratorISC_EE5valueEvE4typeE
00000001001955dc T __ZNSt3__14listIN6pebble3rpc14AddressService18AddrServiceAddressENS_9allocatorIS4_EEE6insertINS_21__list_const_iteratorIS4_PvEEEENS_15__list_iteratorIS4_SA_EESB_T_SE_PNS_9enable_ifIXsr19__is_input_iteratorISE_EE5valueEvE4typeE
0000000100184370 T __ZNSt3__14listIN6pebble3rpc14AddressService18AddrServiceAddressENS_9allocatorIS4_EEE9pop_frontEv
00000001001825a8 T __ZNSt3__14listIN6pebble3rpc14AddressService18AddrServiceAddressENS_9allocatorIS4_EEE9push_backERKS4_
00000001000dd044 T __ZNSt3__14listINS_12basic_stringIcNS_11char_traitsIcEENS_9allocatorIcEEEENS4_IS6_EEE10push_frontEOS6_
00000001000dc8ec T __ZNSt3__14listINS_12basic_stringIcNS_11char_traitsIcEENS_9allocatorIcEEEENS4_IS6_EEE10push_frontERKS6_
00000001000dceec T __ZNSt3__14listINS_12basic_stringIcNS_11char_traitsIcEENS_9allocatorIcEEEENS4_IS6_EEE9pop_frontEv
000000010037fb5c T __ZNSt3__14listINS_12basic_stringIcNS_11char_traitsIcEENS_9allocatorIcEEEENS4_IS6_EEE9push_backEOS6_
0000000100230338 T __ZNSt3__14listINS_12basic_stringIcNS_11char_traitsIcEENS_9allocatorIcEEEENS4_IS6_EEE9push_backERKS6_
00000001003e556c T __ZNSt3__14listIP10ITaskEventNS_9allocatorIS2_EEE9pop_frontEv
00000001003e4fc8 T __ZNSt3__14listIP10ITaskEventNS_9allocatorIS2_EEE9push_backERKS2_
0000000100318254 T __ZNSt3__14listIP10TFileEntryNS_9allocatorIS2_EEE9push_backERKS2_
00000001003e0160 T __ZNSt3__14listIP11ITaskRunnerNS_9allocatorIS2_EEE5eraseENS_21__list_const_iteratorIS2_PvEE
00000001003fc81c T __ZNSt3__14listIP11ITaskRunnerNS_9allocatorIS2_EEE6insertENS_21__list_const_iteratorIS2_PvEERKS2_
00000001003e5720 T __ZNSt3__14listIP11ITaskRunnerNS_9allocatorIS2_EEE6removeERKS2_
00000001003e712c T __ZNSt3__14listIP11ITaskRunnerNS_9allocatorIS2_EEE6spliceENS_21__list_const_iteratorIS2_PvEERS5_S8_S8_
00000001003e6304 T __ZNSt3__14listIP11ITaskRunnerNS_9allocatorIS2_EEE8pop_backEv
0000000100407054 T __ZNSt3__14listIP13PRIORITYELMNTNS_9allocatorIS2_EEE5eraseENS_21__list_const_iteratorIS2_PvEES8_
0000000100406064 T __ZNSt3__14listIP13PRIORITYELMNTNS_9allocatorIS2_EEE6assignINS_21__list_const_iteratorIS2_PvEEEEvT_SA_PNS_9enable_ifIXsr19__is_input_iteratorISA_EE5valueEvE4typeE
0000000100406384 T __ZNSt3__14listIP13PRIORITYELMNTNS_9allocatorIS2_EEE6insertINS_21__list_const_iteratorIS2_PvEEEENS_15__list_iteratorIS2_S8_EES9_T_SC_PNS_9enable_ifIXsr19__is_input_iteratorISC_EE5valueEvE4typeE
000000010040039c T __ZNSt3__14listIP13PRIORITYELMNTNS_9allocatorIS2_EEE9push_backEOS2_
00000001003ff3a4 T __ZNSt3__14listIP13PRIORITYELMNTNS_9allocatorIS2_EEE9push_backERKS2_
00000001002ce344 T __ZNSt3__14listIP4CBufNS_9allocatorIS2_EEE5eraseENS_21__list_const_iteratorIS2_PvEE
00000001002d0368 T __ZNSt3__14listIP4CBufNS_9allocatorIS2_EEE5eraseENS_21__list_const_iteratorIS2_PvEES8_
00000001002cf378 T __ZNSt3__14listIP4CBufNS_9allocatorIS2_EEE6assignINS_21__list_const_iteratorIS2_PvEEEEvT_SA_PNS_9enable_ifIXsr19__is_input_iteratorISA_EE5valueEvE4typeE
00000001002ced5c T __ZNSt3__14listIP4CBufNS_9allocatorIS2_EEE6insertENS_21__list_const_iteratorIS2_PvEERKS2_
00000001002cf698 T __ZNSt3__14listIP4CBufNS_9allocatorIS2_EEE6insertINS_21__list_const_iteratorIS2_PvEEEENS_15__list_iteratorIS2_S8_EES9_T_SC_PNS_9enable_ifIXsr19__is_input_iteratorISC_EE5valueEvE4typeE
00000001002bf4d4 T __ZNSt3__14listIP4CBufNS_9allocatorIS2_EEE9pop_frontEv
00000001002cdda0 T __ZNSt3__14listIP4CBufNS_9allocatorIS2_EEE9push_backERKS2_
0000000100296f34 T __ZNSt3__14listIPN2cu13IActionResultENS_9allocatorIS3_EEE9push_backERKS3_
00000001002735f4 T __ZNSt3__14listIPN2cu14IDownActionMsgENS_9allocatorIS3_EEE9push_backEOS3_
0000000100299388 T __ZNSt3__14listIPN2cu17IAppCallbackEventENS_9allocatorIS3_EEE9pop_frontEv
0000000100298de4 T __ZNSt3__14listIPN2cu17IAppCallbackEventENS_9allocatorIS3_EEE9push_backERKS3_
000000010028dd80 T __ZNSt3__14listIPN2cu17action_descriptorENS_9allocatorIS3_EEE9push_backERKS3_
000000010022525c T __ZNSt3__14listIPN2cu17data_callback_mgr12IDownloadMsgENS_9allocatorIS4_EEE9pop_frontEv
00000001002253a4 T __ZNSt3__14listIPN2cu17data_callback_mgr12IDownloadMsgENS_9allocatorIS4_EEE9push_backERKS4_
000000010026bed8 T __ZNSt3__14listIPN2cu19IPufferActionResultENS_9allocatorIS3_EEE9push_backERKS3_
0000000100255010 T __ZNSt3__14listIPN2cu20IPreDownloadInterMsgENS_9allocatorIS3_EEE9pop_frontEv
0000000100255158 T __ZNSt3__14listIPN2cu20IPreDownloadInterMsgENS_9allocatorIS3_EEE9push_backERKS3_
000000010026c584 T __ZNSt3__14listIPN2cu24IPufferActionCallBackMsgENS_9allocatorIS3_EEE9push_backEOS3_
0000000100295aa8 T __ZNSt3__14listIPN2cu7IActionENS_9allocatorIS3_EEE10push_frontERKS3_
0000000100295920 T __ZNSt3__14listIPN2cu7IActionENS_9allocatorIS3_EEE5eraseENS_21__list_const_iteratorIS3_PvEE
00000001002952d8 T __ZNSt3__14listIPN2cu7IActionENS_9allocatorIS3_EEE6insertENS_21__list_const_iteratorIS3_PvEERKS3_
0000000100299a74 T __ZNSt3__14listIPN2cu7IActionENS_9allocatorIS3_EEE9pop_frontEv
00000001002994d0 T __ZNSt3__14listIPN2cu7IActionENS_9allocatorIS3_EEE9push_backERKS3_
000000010044ffa8 T __ZNSt3__14listIPcNS_9allocatorIS1_EEE8pop_backEv
000000010044f9fc T __ZNSt3__14listIPcNS_9allocatorIS1_EEE9push_backEOS1_
0000000100233094 T __ZNSt3__14listIjNS_9allocatorIjEEE8pop_backEv
00000001002331dc T __ZNSt3__14listIjNS_9allocatorIjEEE9push_backEOj
0000000100232af0 T __ZNSt3__14listIjNS_9allocatorIjEEE9push_backERKj
000000010040d690 T __ZNSt3__14moveIN12SpeedCounter6SampleEPS2_RS2_PS3_lLl170ES2_S3_S4_S5_lLl170EEENS_16__deque_iteratorIT5_T6_T7_T8_T9_XT10_EEENS6_IT_T0_T1_T2_T3_XT4_EEESI_SC_
00000001000d7500 T __ZNSt3__14moveIN8cu_event15cu_wfmo_info_t_EPS2_RS2_PS3_lLl256ES2_S3_S4_S5_lLl256EEENS_16__deque_iteratorIT5_T6_T7_T8_T9_XT10_EEENS6_IT_T0_T1_T2_T3_XT4_EEESI_SC_
000000010040dde8 T __ZNSt3__14moveIPN12SpeedCounter6SampleES2_S3_RS2_PS3_lLl170EEENS_16__deque_iteratorIT0_T1_T2_T3_T4_XT5_EEET_SD_SC_PNS_9enable_ifIXsr27__is_random_access_iteratorISD_EE5valueEvE4typeE
00000001000d7c58 T __ZNSt3__14moveIPN8cu_event15cu_wfmo_info_t_ES2_S3_RS2_PS3_lLl256EEENS_16__deque_iteratorIT0_T1_T2_T3_T4_XT5_EEET_SD_SC_PNS_9enable_ifIXsr27__is_random_access_iteratorISD_EE5valueEvE4typeE
                 U __ZNSt3__15ctypeIcE2idE
000000010040a418 T __ZNSt3__15dequeIN12SpeedCounter6SampleENS_9allocatorIS2_EEE19__add_back_capacityEv
0000000100408610 T __ZNSt3__15dequeIN12SpeedCounter6SampleENS_9allocatorIS2_EEE5eraseENS_16__deque_iteratorIS2_PKS2_RS7_PKS8_lLl170EEESC_
0000000100407984 T __ZNSt3__15dequeIN12SpeedCounter6SampleENS_9allocatorIS2_EEE9push_backEOS2_
0000000100138d00 T __ZNSt3__15dequeIN7cu_Json6Reader9ErrorInfoENS_9allocatorIS3_EEE14__erase_to_endENS_16__deque_iteratorIS3_PKS3_RS8_PKS9_lLl73EEE
0000000100139408 T __ZNSt3__15dequeIN7cu_Json6Reader9ErrorInfoENS_9allocatorIS3_EEE19__add_back_capacityEm
0000000100135afc T __ZNSt3__15dequeIN7cu_Json6Reader9ErrorInfoENS_9allocatorIS3_EEE19__add_back_capacityEv
0000000100131214 T __ZNSt3__15dequeIN7cu_Json6Reader9ErrorInfoENS_9allocatorIS3_EEE6resizeEm
0000000100138ac8 T __ZNSt3__15dequeIN7cu_Json6Reader9ErrorInfoENS_9allocatorIS3_EEE8__appendEm
0000000100131040 T __ZNSt3__15dequeIN7cu_Json6Reader9ErrorInfoENS_9allocatorIS3_EEE9push_backERKS3_
00000001000d7ee8 T __ZNSt3__15dequeIN8cu_event15cu_wfmo_info_t_ENS_9allocatorIS2_EEE19__add_back_capacityEv
00000001000d5098 T __ZNSt3__15dequeIN8cu_event15cu_wfmo_info_t_ENS_9allocatorIS2_EEE5eraseENS_16__deque_iteratorIS2_PKS2_RS7_PKS8_lLl256EEESC_
00000001000d65fc T __ZNSt3__15dequeIN8cu_event15cu_wfmo_info_t_ENS_9allocatorIS2_EEE9pop_frontEv
00000001000d6114 T __ZNSt3__15dequeIN8cu_event15cu_wfmo_info_t_ENS_9allocatorIS2_EEE9push_backERKS2_
00000001001b0830 T __ZNSt3__15dequeINS_10shared_ptrIN6pebble3rpc8protocol12TJSONContextEEENS_9allocatorIS6_EEE19__add_back_capacityEv
00000001001b0338 T __ZNSt3__15dequeINS_10shared_ptrIN6pebble3rpc8protocol12TJSONContextEEENS_9allocatorIS6_EEE8pop_backEv
00000001001b0618 T __ZNSt3__15dequeINS_10shared_ptrIN6pebble3rpc8protocol12TJSONContextEEENS_9allocatorIS6_EEE9push_backERKS6_
0000000100132c10 T __ZNSt3__15dequeIPN7cu_Json5ValueENS_9allocatorIS3_EEE19__add_back_capacityEv
000000010013276c T __ZNSt3__15dequeIPN7cu_Json5ValueENS_9allocatorIS3_EEE8pop_backEv
0000000100132a38 T __ZNSt3__15dequeIPN7cu_Json5ValueENS_9allocatorIS3_EEE9push_backEOS3_
000000010040e07c T __ZNSt3__15dequeImNS_9allocatorImEEE19__add_back_capacityEv
0000000100409370 T __ZNSt3__15dequeImNS_9allocatorImEEE9pop_frontEv
0000000100409510 T __ZNSt3__15dequeImNS_9allocatorImEEE9push_backEOm
                 U __ZNSt3__15mutex4lockEv
                 U __ZNSt3__15mutex6unlockEv
                 U __ZNSt3__15mutexD1Ev
00000001001cb2a4 T __ZNSt3__16__sortIRNS_6__lessINS_12basic_stringIcNS_11char_traitsIcEENS_9allocatorIcEEEES7_EEPS7_EEvT0_SB_T_
00000001000c139c T __ZNSt3__16__treeINS_12__value_typeI9TGCPStateiEENS_19__map_value_compareIS2_S3_NS_4lessIS2_EELb1EEENS_9allocatorIS3_EEE12__find_equalIS2_EERPNS_16__tree_node_baseIPvEERPNS_15__tree_end_nodeISF_EERKT_
00000001000c15f4 T __ZNSt3__16__treeINS_12__value_typeI9TGCPStateiEENS_19__map_value_compareIS2_S3_NS_4lessIS2_EELb1EEENS_9allocatorIS3_EEE16__construct_nodeIJRKNS_21piecewise_construct_tENS_5tupleIJOS2_EEENSF_IJEEEEEENS_10unique_ptrINS_11__tree_nodeIS3_PvEENS_22__tree_node_destructorINS8_ISM_EEEEEEDpOT_
00000001000c1bc8 T __ZNSt3__16__treeINS_12__value_typeI9TGCPStateiEENS_19__map_value_compareIS2_S3_NS_4lessIS2_EELb1EEENS_9allocatorIS3_EEE16__insert_node_atEPNS_15__tree_end_nodeIPNS_16__tree_node_baseIPvEEEERSF_SF_
00000001000c0fa0 T __ZNSt3__16__treeINS_12__value_typeI9TGCPStateiEENS_19__map_value_compareIS2_S3_NS_4lessIS2_EELb1EEENS_9allocatorIS3_EEE25__emplace_unique_key_argsIS2_JRKNS_21piecewise_construct_tENS_5tupleIJOS2_EEENSF_IJEEEEEENS_4pairINS_15__tree_iteratorIS3_PNS_11__tree_nodeIS3_PvEElEEbEERKT_DpOT0_
00000001000c0eac T __ZNSt3__16__treeINS_12__value_typeI9TGCPStateiEENS_19__map_value_compareIS2_S3_NS_4lessIS2_EELb1EEENS_9allocatorIS3_EEE5clearEv
00000001000b6228 T __ZNSt3__16__treeINS_12__value_typeI9TGCPStateiEENS_19__map_value_compareIS2_S3_NS_4lessIS2_EELb1EEENS_9allocatorIS3_EEE7destroyEPNS_11__tree_nodeIS3_PvEE
0000000100141740 T __ZNSt3__16__treeINS_12__value_typeIN7cu_Json5Value8CZStringES3_EENS_19__map_value_compareIS4_S5_NS_4lessIS4_EELb1EEENS_9allocatorIS5_EEE12__find_equalIS4_EERPNS_16__tree_node_baseIPvEENS_21__tree_const_iteratorIS5_PNS_11__tree_nodeIS5_SF_EElEERPNS_15__tree_end_nodeISH_EESI_RKT_
00000001001426a4 T __ZNSt3__16__treeINS_12__value_typeIN7cu_Json5Value8CZStringES3_EENS_19__map_value_compareIS4_S5_NS_4lessIS4_EELb1EEENS_9allocatorIS5_EEE12__find_equalIS4_EERPNS_16__tree_node_baseIPvEERPNS_15__tree_end_nodeISH_EERKT_
0000000100142c3c T __ZNSt3__16__treeINS_12__value_typeIN7cu_Json5Value8CZStringES3_EENS_19__map_value_compareIS4_S5_NS_4lessIS4_EELb1EEENS_9allocatorIS5_EEE13__lower_boundIS4_EENS_15__tree_iteratorIS5_PNS_11__tree_nodeIS5_PvEElEERKT_SI_PNS_15__tree_end_nodeIPNS_16__tree_node_baseISG_EEEE
0000000100141f38 T __ZNSt3__16__treeINS_12__value_typeIN7cu_Json5Value8CZStringES3_EENS_19__map_value_compareIS4_S5_NS_4lessIS4_EELb1EEENS_9allocatorIS5_EEE16__construct_nodeIJRKNS_4pairIKS4_S3_EEEEENS_10unique_ptrINS_11__tree_nodeIS5_PvEENS_22__tree_node_destructorINSA_ISM_EEEEEEDpOT_
00000001001425a8 T __ZNSt3__16__treeINS_12__value_typeIN7cu_Json5Value8CZStringES3_EENS_19__map_value_compareIS4_S5_NS_4lessIS4_EELb1EEENS_9allocatorIS5_EEE16__insert_node_atEPNS_15__tree_end_nodeIPNS_16__tree_node_baseIPvEEEERSH_SH_
0000000100141368 T __ZNSt3__16__treeINS_12__value_typeIN7cu_Json5Value8CZStringES3_EENS_19__map_value_compareIS4_S5_NS_4lessIS4_EELb1EEENS_9allocatorIS5_EEE30__emplace_hint_unique_key_argsIS4_JRKNS_4pairIKS4_S3_EEEEENS_15__tree_iteratorIS5_PNS_11__tree_nodeIS5_PvEElEENS_21__tree_const_iteratorIS5_SN_lEERKT_DpOT0_
00000001001429f0 T __ZNSt3__16__treeINS_12__value_typeIN7cu_Json5Value8CZStringES3_EENS_19__map_value_compareIS4_S5_NS_4lessIS4_EELb1EEENS_9allocatorIS5_EEE4findIS4_EENS_15__tree_iteratorIS5_PNS_11__tree_nodeIS5_PvEElEERKT_
0000000100141008 T __ZNSt3__16__treeINS_12__value_typeIN7cu_Json5Value8CZStringES3_EENS_19__map_value_compareIS4_S5_NS_4lessIS4_EELb1EEENS_9allocatorIS5_EEE7destroyEPNS_11__tree_nodeIS5_PvEE
00000001002a1d10 T __ZNSt3__16__treeINS_12__value_typeINS_12basic_stringIcNS_11char_traitsIcEENS_9allocatorIcEEEEN2cu16cu_filelist_itemEEENS_19__map_value_compareIS7_SA_NS_4lessIS7_EELb1EEENS5_ISA_EEE12__find_equalIS7_EERPNS_16__tree_node_baseIPvEERPNS_15__tree_end_nodeISL_EERKT_
00000001002a1380 T __ZNSt3__16__treeINS_12__value_typeINS_12basic_stringIcNS_11char_traitsIcEENS_9allocatorIcEEEEN2cu16cu_filelist_itemEEENS_19__map_value_compareIS7_SA_NS_4lessIS7_EELb1EEENS5_ISA_EEE13__lower_boundIS7_EENS_15__tree_iteratorISA_PNS_11__tree_nodeISA_PvEElEERKT_SM_PNS_15__tree_end_nodeIPNS_16__tree_node_baseISK_EEEE
00000001002a2708 T __ZNSt3__16__treeINS_12__value_typeINS_12basic_stringIcNS_11char_traitsIcEENS_9allocatorIcEEEEN2cu16cu_filelist_itemEEENS_19__map_value_compareIS7_SA_NS_4lessIS7_EELb1EEENS5_ISA_EEE16__construct_nodeIJNS_4pairIS7_S9_EEEEENS_10unique_ptrINS_11__tree_nodeISA_PvEENS_22__tree_node_destructorINS5_ISN_EEEEEEDpOT_
00000001002a2cf8 T __ZNSt3__16__treeINS_12__value_typeINS_12basic_stringIcNS_11char_traitsIcEENS_9allocatorIcEEEEN2cu16cu_filelist_itemEEENS_19__map_value_compareIS7_SA_NS_4lessIS7_EELb1EEENS5_ISA_EEE16__insert_node_atEPNS_15__tree_end_nodeIPNS_16__tree_node_baseIPvEEEERSL_SL_
00000001002a191c T __ZNSt3__16__treeINS_12__value_typeINS_12basic_stringIcNS_11char_traitsIcEENS_9allocatorIcEEEEN2cu16cu_filelist_itemEEENS_19__map_value_compareIS7_SA_NS_4lessIS7_EELb1EEENS5_ISA_EEE25__emplace_unique_key_argsIS7_JNS_4pairIS7_S9_EEEEENSI_INS_15__tree_iteratorISA_PNS_11__tree_nodeISA_PvEElEEbEERKT_DpOT0_
00000001002a0d54 T __ZNSt3__16__treeINS_12__value_typeINS_12basic_stringIcNS_11char_traitsIcEENS_9allocatorIcEEEEN2cu16cu_filelist_itemEEENS_19__map_value_compareIS7_SA_NS_4lessIS7_EELb1EEENS5_ISA_EEE4findIS7_EENS_15__tree_iteratorISA_PNS_11__tree_nodeISA_PvEElEERKT_
00000001002a0a2c T __ZNSt3__16__treeINS_12__value_typeINS_12basic_stringIcNS_11char_traitsIcEENS_9allocatorIcEEEEN2cu16cu_filelist_itemEEENS_19__map_value_compareIS7_SA_NS_4lessIS7_EELb1EEENS5_ISA_EEE7destroyEPNS_11__tree_nodeISA_PvEE
0000000100282380 T __ZNSt3__16__treeINS_12__value_typeINS_12basic_stringIcNS_11char_traitsIcEENS_9allocatorIcEEEEN2cu17CPufferInitAction8FileInfoEEENS_19__map_value_compareIS7_SB_NS_4lessIS7_EELb1EEENS5_ISB_EEE12__find_equalIS7_EERPNS_16__tree_node_baseIPvEERPNS_15__tree_end_nodeISM_EERKT_
0000000100281944 T __ZNSt3__16__treeINS_12__value_typeINS_12basic_stringIcNS_11char_traitsIcEENS_9allocatorIcEEEEN2cu17CPufferInitAction8FileInfoEEENS_19__map_value_compareIS7_SB_NS_4lessIS7_EELb1EEENS5_ISB_EEE13__lower_boundIS7_EENS_15__tree_iteratorISB_PNS_11__tree_nodeISB_PvEElEERKT_SN_PNS_15__tree_end_nodeIPNS_16__tree_node_baseISL_EEEE
0000000100282d78 T __ZNSt3__16__treeINS_12__value_typeINS_12basic_stringIcNS_11char_traitsIcEENS_9allocatorIcEEEEN2cu17CPufferInitAction8FileInfoEEENS_19__map_value_compareIS7_SB_NS_4lessIS7_EELb1EEENS5_ISB_EEE16__construct_nodeIJNS_4pairIS7_SA_EEEEENS_10unique_ptrINS_11__tree_nodeISB_PvEENS_22__tree_node_destructorINS5_ISO_EEEEEEDpOT_
0000000100283368 T __ZNSt3__16__treeINS_12__value_typeINS_12basic_stringIcNS_11char_traitsIcEENS_9allocatorIcEEEEN2cu17CPufferInitAction8FileInfoEEENS_19__map_value_compareIS7_SB_NS_4lessIS7_EELb1EEENS5_ISB_EEE16__insert_node_atEPNS_15__tree_end_nodeIPNS_16__tree_node_baseIPvEEEERSM_SM_
0000000100281f8c T __ZNSt3__16__treeINS_12__value_typeINS_12basic_stringIcNS_11char_traitsIcEENS_9allocatorIcEEEEN2cu17CPufferInitAction8FileInfoEEENS_19__map_value_compareIS7_SB_NS_4lessIS7_EELb1EEENS5_ISB_EEE25__emplace_unique_key_argsIS7_JNS_4pairIS7_SA_EEEEENSJ_INS_15__tree_iteratorISB_PNS_11__tree_nodeISB_PvEElEEbEERKT_DpOT0_
0000000100281318 T __ZNSt3__16__treeINS_12__value_typeINS_12basic_stringIcNS_11char_traitsIcEENS_9allocatorIcEEEEN2cu17CPufferInitAction8FileInfoEEENS_19__map_value_compareIS7_SB_NS_4lessIS7_EELb1EEENS5_ISB_EEE4findIS7_EENS_15__tree_iteratorISB_PNS_11__tree_nodeISB_PvEElEERKT_
0000000100281e14 T __ZNSt3__16__treeINS_12__value_typeINS_12basic_stringIcNS_11char_traitsIcEENS_9allocatorIcEEEEN2cu17CPufferInitAction8FileInfoEEENS_19__map_value_compareIS7_SB_NS_4lessIS7_EELb1EEENS5_ISB_EEE5clearEv
0000000100280b88 T __ZNSt3__16__treeINS_12__value_typeINS_12basic_stringIcNS_11char_traitsIcEENS_9allocatorIcEEEEN2cu17CPufferInitAction8FileInfoEEENS_19__map_value_compareIS7_SB_NS_4lessIS7_EELb1EEENS5_ISB_EEE7destroyEPNS_11__tree_nodeISB_PvEE
00000001003eef14 T __ZNSt3__16__treeINS_12__value_typeINS_12basic_stringIcNS_11char_traitsIcEENS_9allocatorIcEEEEN2cu18tagHostIPCacheInfoEEENS_19__map_value_compareIS7_SA_NS_4lessIS7_EELb1EEENS5_ISA_EEE12__find_equalIS7_EERPNS_16__tree_node_baseIPvEERPNS_15__tree_end_nodeISL_EERKT_
00000001003ee224 T __ZNSt3__16__treeINS_12__value_typeINS_12basic_stringIcNS_11char_traitsIcEENS_9allocatorIcEEEEN2cu18tagHostIPCacheInfoEEENS_19__map_value_compareIS7_SA_NS_4lessIS7_EELb1EEENS5_ISA_EEE13__lower_boundIS7_EENS_15__tree_iteratorISA_PNS_11__tree_nodeISA_PvEElEERKT_SM_PNS_15__tree_end_nodeIPNS_16__tree_node_baseISK_EEEE
00000001003ef90c T __ZNSt3__16__treeINS_12__value_typeINS_12basic_stringIcNS_11char_traitsIcEENS_9allocatorIcEEEEN2cu18tagHostIPCacheInfoEEENS_19__map_value_compareIS7_SA_NS_4lessIS7_EELb1EEENS5_ISA_EEE16__construct_nodeIJNS_4pairIS7_S9_EEEEENS_10unique_ptrINS_11__tree_nodeISA_PvEENS_22__tree_node_destructorINS5_ISN_EEEEEEDpOT_
00000001003efefc T __ZNSt3__16__treeINS_12__value_typeINS_12basic_stringIcNS_11char_traitsIcEENS_9allocatorIcEEEEN2cu18tagHostIPCacheInfoEEENS_19__map_value_compareIS7_SA_NS_4lessIS7_EELb1EEENS5_ISA_EEE16__insert_node_atEPNS_15__tree_end_nodeIPNS_16__tree_node_baseIPvEEEERSL_SL_
00000001003eeb20 T __ZNSt3__16__treeINS_12__value_typeINS_12basic_stringIcNS_11char_traitsIcEENS_9allocatorIcEEEEN2cu18tagHostIPCacheInfoEEENS_19__map_value_compareIS7_SA_NS_4lessIS7_EELb1EEENS5_ISA_EEE25__emplace_unique_key_argsIS7_JNS_4pairIS7_S9_EEEEENSI_INS_15__tree_iteratorISA_PNS_11__tree_nodeISA_PvEElEEbEERKT_DpOT0_
00000001003edbf8 T __ZNSt3__16__treeINS_12__value_typeINS_12basic_stringIcNS_11char_traitsIcEENS_9allocatorIcEEEEN2cu18tagHostIPCacheInfoEEENS_19__map_value_compareIS7_SA_NS_4lessIS7_EELb1EEENS5_ISA_EEE4findIS7_EENS_15__tree_iteratorISA_PNS_11__tree_nodeISA_PvEElEERKT_
00000001003ee6f4 T __ZNSt3__16__treeINS_12__value_typeINS_12basic_stringIcNS_11char_traitsIcEENS_9allocatorIcEEEEN2cu18tagHostIPCacheInfoEEENS_19__map_value_compareIS7_SA_NS_4lessIS7_EELb1EEENS5_ISA_EEE5eraseENS_21__tree_const_iteratorISA_PNS_11__tree_nodeISA_PvEElEE
00000001003eda4c T __ZNSt3__16__treeINS_12__value_typeINS_12basic_stringIcNS_11char_traitsIcEENS_9allocatorIcEEEEN2cu18tagHostIPCacheInfoEEENS_19__map_value_compareIS7_SA_NS_4lessIS7_EELb1EEENS5_ISA_EEE7destroyEPNS_11__tree_nodeISA_PvEE
000000010019bbf0 T __ZNSt3__16__treeINS_12__value_typeINS_12basic_stringIcNS_11char_traitsIcEENS_9allocatorIcEEEEN6GCloud12AddressCache9CacheItemEEENS_19__map_value_compareIS7_SB_NS_4lessIS7_EELb1EEENS5_ISB_EEE12__find_equalIS7_EERPNS_16__tree_node_baseIPvEERPNS_15__tree_end_nodeISM_EERKT_
000000010019b298 T __ZNSt3__16__treeINS_12__value_typeINS_12basic_stringIcNS_11char_traitsIcEENS_9allocatorIcEEEEN6GCloud12AddressCache9CacheItemEEENS_19__map_value_compareIS7_SB_NS_4lessIS7_EELb1EEENS5_ISB_EEE13__lower_boundIS7_EENS_15__tree_iteratorISB_PNS_11__tree_nodeISB_PvEElEERKT_SN_PNS_15__tree_end_nodeIPNS_16__tree_node_baseISL_EEEE
000000010019c5e8 T __ZNSt3__16__treeINS_12__value_typeINS_12basic_stringIcNS_11char_traitsIcEENS_9allocatorIcEEEEN6GCloud12AddressCache9CacheItemEEENS_19__map_value_compareIS7_SB_NS_4lessIS7_EELb1EEENS5_ISB_EEE16__construct_nodeIJNS_4pairIS7_SA_EEEEENS_10unique_ptrINS_11__tree_nodeISB_PvEENS_22__tree_node_destructorINS5_ISO_EEEEEEDpOT_
000000010019cbd8 T __ZNSt3__16__treeINS_12__value_typeINS_12basic_stringIcNS_11char_traitsIcEENS_9allocatorIcEEEEN6GCloud12AddressCache9CacheItemEEENS_19__map_value_compareIS7_SB_NS_4lessIS7_EELb1EEENS5_ISB_EEE16__insert_node_atEPNS_15__tree_end_nodeIPNS_16__tree_node_baseIPvEEEERSM_SM_
000000010019b7fc T __ZNSt3__16__treeINS_12__value_typeINS_12basic_stringIcNS_11char_traitsIcEENS_9allocatorIcEEEEN6GCloud12AddressCache9CacheItemEEENS_19__map_value_compareIS7_SB_NS_4lessIS7_EELb1EEENS5_ISB_EEE25__emplace_unique_key_argsIS7_JNS_4pairIS7_SA_EEEEENSJ_INS_15__tree_iteratorISB_PNS_11__tree_nodeISB_PvEElEEbEERKT_DpOT0_
000000010019ac6c T __ZNSt3__16__treeINS_12__value_typeINS_12basic_stringIcNS_11char_traitsIcEENS_9allocatorIcEEEEN6GCloud12AddressCache9CacheItemEEENS_19__map_value_compareIS7_SB_NS_4lessIS7_EELb1EEENS5_ISB_EEE4findIS7_EENS_15__tree_iteratorISB_PNS_11__tree_nodeISB_PvEElEERKT_
000000010019aa38 T __ZNSt3__16__treeINS_12__value_typeINS_12basic_stringIcNS_11char_traitsIcEENS_9allocatorIcEEEEN6GCloud12AddressCache9CacheItemEEENS_19__map_value_compareIS7_SB_NS_4lessIS7_EELb1EEENS5_ISB_EEE7destroyEPNS_11__tree_nodeISB_PvEE
00000001000e7b64 T __ZNSt3__16__treeINS_12__value_typeINS_12basic_stringIcNS_11char_traitsIcEENS_9allocatorIcEEEEN6GCloud17_tagConnectorInfoEEENS_19__map_value_compareIS7_SA_NS_4lessIS7_EELb1EEENS5_ISA_EEE7destroyEPNS_11__tree_nodeISA_PvEE
00000001001d9550 T __ZNSt3__16__treeINS_12__value_typeINS_12basic_stringIcNS_11char_traitsIcEENS_9allocatorIcEEEENS_10shared_ptrIN6pebble3rpc9processor15TAsyncProcessorEEEEENS_19__map_value_compareIS7_SE_NS_4lessIS7_EELb1EEENS5_ISE_EEE13__lower_boundIS7_EENS_15__tree_iteratorISE_PNS_11__tree_nodeISE_PvEElEERKT_SQ_PNS_15__tree_end_nodeIPNS_16__tree_node_baseISO_EEEE
00000001001d8f24 T __ZNSt3__16__treeINS_12__value_typeINS_12basic_stringIcNS_11char_traitsIcEENS_9allocatorIcEEEENS_10shared_ptrIN6pebble3rpc9processor15TAsyncProcessorEEEEENS_19__map_value_compareIS7_SE_NS_4lessIS7_EELb1EEENS5_ISE_EEE4findIS7_EENS_15__tree_iteratorISE_PNS_11__tree_nodeISE_PvEElEERKT_
00000001001ca45c T __ZNSt3__16__treeINS_12__value_typeINS_12basic_stringIcNS_11char_traitsIcEENS_9allocatorIcEEEENS_10shared_ptrIN6pebble3rpc9processor15TAsyncProcessorEEEEENS_19__map_value_compareIS7_SE_NS_4lessIS7_EELb1EEENS5_ISE_EEE7destroyEPNS_11__tree_nodeISE_PvEE
0000000100193f58 T __ZNSt3__16__treeINS_12__value_typeINS_12basic_stringIcNS_11char_traitsIcEENS_9allocatorIcEEEENS_4listIN6pebble3rpc14AddressService18AddrServiceAddressENS5_ISC_EEEEEENS_19__map_value_compareIS7_SF_NS_4lessIS7_EELb1EEENS5_ISF_EEE12__find_equalIS7_EERPNS_16__tree_node_baseIPvEERPNS_15__tree_end_nodeISQ_EERKT_
00000001001983bc T __ZNSt3__16__treeINS_12__value_typeINS_12basic_stringIcNS_11char_traitsIcEENS_9allocatorIcEEEENS_4listIN6pebble3rpc14AddressService18AddrServiceAddressENS5_ISC_EEEEEENS_19__map_value_compareIS7_SF_NS_4lessIS7_EELb1EEENS5_ISF_EEE13__lower_boundIS7_EENS_15__tree_iteratorISF_PNS_11__tree_nodeISF_PvEElEERKT_SR_PNS_15__tree_end_nodeIPNS_16__tree_node_baseISP_EEEE
0000000100194950 T __ZNSt3__16__treeINS_12__value_typeINS_12basic_stringIcNS_11char_traitsIcEENS_9allocatorIcEEEENS_4listIN6pebble3rpc14AddressService18AddrServiceAddressENS5_ISC_EEEEEENS_19__map_value_compareIS7_SF_NS_4lessIS7_EELb1EEENS5_ISF_EEE16__construct_nodeIJRKNS_21piecewise_construct_tENS_5tupleIJRKS7_EEENSQ_IJEEEEEENS_10unique_ptrINS_11__tree_nodeISF_PvEENS_22__tree_node_destructorINS5_ISY_EEEEEEDpOT_
0000000100195170 T __ZNSt3__16__treeINS_12__value_typeINS_12basic_stringIcNS_11char_traitsIcEENS_9allocatorIcEEEENS_4listIN6pebble3rpc14AddressService18AddrServiceAddressENS5_ISC_EEEEEENS_19__map_value_compareIS7_SF_NS_4lessIS7_EELb1EEENS5_ISF_EEE16__insert_node_atEPNS_15__tree_end_nodeIPNS_16__tree_node_baseIPvEEEERSQ_SQ_
0000000100193b44 T __ZNSt3__16__treeINS_12__value_typeINS_12basic_stringIcNS_11char_traitsIcEENS_9allocatorIcEEEENS_4listIN6pebble3rpc14AddressService18AddrServiceAddressENS5_ISC_EEEEEENS_19__map_value_compareIS7_SF_NS_4lessIS7_EELb1EEENS5_ISF_EEE25__emplace_unique_key_argsIS7_JRKNS_21piecewise_construct_tENS_5tupleIJRKS7_EEENSQ_IJEEEEEENS_4pairINS_15__tree_iteratorISF_PNS_11__tree_nodeISF_PvEElEEbEERKT_DpOT0_
0000000100197d90 T __ZNSt3__16__treeINS_12__value_typeINS_12basic_stringIcNS_11char_traitsIcEENS_9allocatorIcEEEENS_4listIN6pebble3rpc14AddressService18AddrServiceAddressENS5_ISC_EEEEEENS_19__map_value_compareIS7_SF_NS_4lessIS7_EELb1EEENS5_ISF_EEE4findIS7_EENS_15__tree_iteratorISF_PNS_11__tree_nodeISF_PvEElEERKT_
0000000100184d78 T __ZNSt3__16__treeINS_12__value_typeINS_12basic_stringIcNS_11char_traitsIcEENS_9allocatorIcEEEENS_4listIN6pebble3rpc14AddressService18AddrServiceAddressENS5_ISC_EEEEEENS_19__map_value_compareIS7_SF_NS_4lessIS7_EELb1EEENS5_ISF_EEE7destroyEPNS_11__tree_nodeISF_PvEE
00000001003cf8a0 T __ZNSt3__16__treeINS_12__value_typeINS_12basic_stringIcNS_11char_traitsIcEENS_9allocatorIcEEEENS_6vectorIN6apollo9tagipinfoENS5_ISA_EEEEEENS_19__map_value_compareIS7_SD_NS_4lessIS7_EELb1EEENS5_ISD_EEE12__find_equalIS7_EERPNS_16__tree_node_baseIPvEERPNS_15__tree_end_nodeISO_EERKT_
00000001003cdef0 T __ZNSt3__16__treeINS_12__value_typeINS_12basic_stringIcNS_11char_traitsIcEENS_9allocatorIcEEEENS_6vectorIN6apollo9tagipinfoENS5_ISA_EEEEEENS_19__map_value_compareIS7_SD_NS_4lessIS7_EELb1EEENS5_ISD_EEE13__lower_boundIS7_EENS_15__tree_iteratorISD_PNS_11__tree_nodeISD_PvEElEERKT_SP_PNS_15__tree_end_nodeIPNS_16__tree_node_baseISN_EEEE
00000001003d0298 T __ZNSt3__16__treeINS_12__value_typeINS_12basic_stringIcNS_11char_traitsIcEENS_9allocatorIcEEEENS_6vectorIN6apollo9tagipinfoENS5_ISA_EEEEEENS_19__map_value_compareIS7_SD_NS_4lessIS7_EELb1EEENS5_ISD_EEE16__construct_nodeIJRKNS_21piecewise_construct_tENS_5tupleIJRKS7_EEENSO_IJEEEEEENS_10unique_ptrINS_11__tree_nodeISD_PvEENS_22__tree_node_destructorINS5_ISW_EEEEEEDpOT_
00000001003d0a74 T __ZNSt3__16__treeINS_12__value_typeINS_12basic_stringIcNS_11char_traitsIcEENS_9allocatorIcEEEENS_6vectorIN6apollo9tagipinfoENS5_ISA_EEEEEENS_19__map_value_compareIS7_SD_NS_4lessIS7_EELb1EEENS5_ISD_EEE16__insert_node_atEPNS_15__tree_end_nodeIPNS_16__tree_node_baseIPvEEEERSO_SO_
00000001003cf48c T __ZNSt3__16__treeINS_12__value_typeINS_12basic_stringIcNS_11char_traitsIcEENS_9allocatorIcEEEENS_6vectorIN6apollo9tagipinfoENS5_ISA_EEEEEENS_19__map_value_compareIS7_SD_NS_4lessIS7_EELb1EEENS5_ISD_EEE25__emplace_unique_key_argsIS7_JRKNS_21piecewise_construct_tENS_5tupleIJRKS7_EEENSO_IJEEEEEENS_4pairINS_15__tree_iteratorISD_PNS_11__tree_nodeISD_PvEElEEbEERKT_DpOT0_
00000001003cd8c4 T __ZNSt3__16__treeINS_12__value_typeINS_12basic_stringIcNS_11char_traitsIcEENS_9allocatorIcEEEENS_6vectorIN6apollo9tagipinfoENS5_ISA_EEEEEENS_19__map_value_compareIS7_SD_NS_4lessIS7_EELb1EEENS5_ISD_EEE4findIS7_EENS_15__tree_iteratorISD_PNS_11__tree_nodeISD_PvEElEERKT_
00000001003ce3c0 T __ZNSt3__16__treeINS_12__value_typeINS_12basic_stringIcNS_11char_traitsIcEENS_9allocatorIcEEEENS_6vectorIN6apollo9tagipinfoENS5_ISA_EEEEEENS_19__map_value_compareIS7_SD_NS_4lessIS7_EELb1EEENS5_ISD_EEE5eraseENS_21__tree_const_iteratorISD_PNS_11__tree_nodeISD_PvEElEE
00000001003cd594 T __ZNSt3__16__treeINS_12__value_typeINS_12basic_stringIcNS_11char_traitsIcEENS_9allocatorIcEEEENS_6vectorIN6apollo9tagipinfoENS5_ISA_EEEEEENS_19__map_value_compareIS7_SD_NS_4lessIS7_EELb1EEENS5_ISD_EEE7destroyEPNS_11__tree_nodeISD_PvEE
00000001002fec90 T __ZNSt3__16__treeINS_12__value_typeINS_12basic_stringIcNS_11char_traitsIcEENS_9allocatorIcEEEEPN19cu_resumebrokeninfo22cu_st_resumebrokeninfoEEENS_19__map_value_compareIS7_SB_NS_4lessIS7_EELb1EEENS5_ISB_EEE12__find_equalIS7_EERPNS_16__tree_node_baseIPvEERPNS_15__tree_end_nodeISM_EERKT_
00000001003003d0 T __ZNSt3__16__treeINS_12__value_typeINS_12basic_stringIcNS_11char_traitsIcEENS_9allocatorIcEEEEPN19cu_resumebrokeninfo22cu_st_resumebrokeninfoEEENS_19__map_value_compareIS7_SB_NS_4lessIS7_EELb1EEENS5_ISB_EEE13__lower_boundIS7_EENS_15__tree_iteratorISB_PNS_11__tree_nodeISB_PvEElEERKT_SN_PNS_15__tree_end_nodeIPNS_16__tree_node_baseISL_EEEE
00000001002ff688 T __ZNSt3__16__treeINS_12__value_typeINS_12basic_stringIcNS_11char_traitsIcEENS_9allocatorIcEEEEPN19cu_resumebrokeninfo22cu_st_resumebrokeninfoEEENS_19__map_value_compareIS7_SB_NS_4lessIS7_EELb1EEENS5_ISB_EEE16__construct_nodeIJNS_4pairIS7_SA_EEEEENS_10unique_ptrINS_11__tree_nodeISB_PvEENS_22__tree_node_destructorINS5_ISO_EEEEEEDpOT_
00000001002ffc60 T __ZNSt3__16__treeINS_12__value_typeINS_12basic_stringIcNS_11char_traitsIcEENS_9allocatorIcEEEEPN19cu_resumebrokeninfo22cu_st_resumebrokeninfoEEENS_19__map_value_compareIS7_SB_NS_4lessIS7_EELb1EEENS5_ISB_EEE16__insert_node_atEPNS_15__tree_end_nodeIPNS_16__tree_node_baseIPvEEEERSM_SM_
00000001002fe89c T __ZNSt3__16__treeINS_12__value_typeINS_12basic_stringIcNS_11char_traitsIcEENS_9allocatorIcEEEEPN19cu_resumebrokeninfo22cu_st_resumebrokeninfoEEENS_19__map_value_compareIS7_SB_NS_4lessIS7_EELb1EEENS5_ISB_EEE25__emplace_unique_key_argsIS7_JNS_4pairIS7_SA_EEEEENSJ_INS_15__tree_iteratorISB_PNS_11__tree_nodeISB_PvEElEEbEERKT_DpOT0_
00000001002ffda4 T __ZNSt3__16__treeINS_12__value_typeINS_12basic_stringIcNS_11char_traitsIcEENS_9allocatorIcEEEEPN19cu_resumebrokeninfo22cu_st_resumebrokeninfoEEENS_19__map_value_compareIS7_SB_NS_4lessIS7_EELb1EEENS5_ISB_EEE4findIS7_EENS_15__tree_iteratorISB_PNS_11__tree_nodeISB_PvEElEERKT_
00000001002fe7a8 T __ZNSt3__16__treeINS_12__value_typeINS_12basic_stringIcNS_11char_traitsIcEENS_9allocatorIcEEEEPN19cu_resumebrokeninfo22cu_st_resumebrokeninfoEEENS_19__map_value_compareIS7_SB_NS_4lessIS7_EELb1EEENS5_ISB_EEE5clearEv
00000001003008a0 T __ZNSt3__16__treeINS_12__value_typeINS_12basic_stringIcNS_11char_traitsIcEENS_9allocatorIcEEEEPN19cu_resumebrokeninfo22cu_st_resumebrokeninfoEEENS_19__map_value_compareIS7_SB_NS_4lessIS7_EELb1EEENS5_ISB_EEE5eraseENS_21__tree_const_iteratorISB_PNS_11__tree_nodeISB_PvEElEE
00000001002fe3a8 T __ZNSt3__16__treeINS_12__value_typeINS_12basic_stringIcNS_11char_traitsIcEENS_9allocatorIcEEEEPN19cu_resumebrokeninfo22cu_st_resumebrokeninfoEEENS_19__map_value_compareIS7_SB_NS_4lessIS7_EELb1EEENS5_ISB_EEE7destroyEPNS_11__tree_nodeISB_PvEE
00000001002aa54c T __ZNSt3__16__treeINS_12__value_typeINS_12basic_stringIcNS_11char_traitsIcEENS_9allocatorIcEEEEPN2cu13CCuIFSRestore24_tagRestoreRangeDownInfoEEENS_19__map_value_compareIS7_SC_NS_4lessIS7_EELb1EEENS5_ISC_EEE12__find_equalIS7_EERPNS_16__tree_node_baseIPvEERPNS_15__tree_end_nodeISN_EERKT_
00000001002a9a14 T __ZNSt3__16__treeINS_12__value_typeINS_12basic_stringIcNS_11char_traitsIcEENS_9allocatorIcEEEEPN2cu13CCuIFSRestore24_tagRestoreRangeDownInfoEEENS_19__map_value_compareIS7_SC_NS_4lessIS7_EELb1EEENS5_ISC_EEE13__lower_boundIS7_EENS_15__tree_iteratorISC_PNS_11__tree_nodeISC_PvEElEERKT_SO_PNS_15__tree_end_nodeIPNS_16__tree_node_baseISM_EEEE
00000001002aaf44 T __ZNSt3__16__treeINS_12__value_typeINS_12basic_stringIcNS_11char_traitsIcEENS_9allocatorIcEEEEPN2cu13CCuIFSRestore24_tagRestoreRangeDownInfoEEENS_19__map_value_compareIS7_SC_NS_4lessIS7_EELb1EEENS5_ISC_EEE16__construct_nodeIJNS_4pairIS7_SB_EEEEENS_10unique_ptrINS_11__tree_nodeISC_PvEENS_22__tree_node_destructorINS5_ISP_EEEEEEDpOT_
00000001002ab51c T __ZNSt3__16__treeINS_12__value_typeINS_12basic_stringIcNS_11char_traitsIcEENS_9allocatorIcEEEEPN2cu13CCuIFSRestore24_tagRestoreRangeDownInfoEEENS_19__map_value_compareIS7_SC_NS_4lessIS7_EELb1EEENS5_ISC_EEE16__insert_node_atEPNS_15__tree_end_nodeIPNS_16__tree_node_baseIPvEEEERSN_SN_
00000001002aa158 T __ZNSt3__16__treeINS_12__value_typeINS_12basic_stringIcNS_11char_traitsIcEENS_9allocatorIcEEEEPN2cu13CCuIFSRestore24_tagRestoreRangeDownInfoEEENS_19__map_value_compareIS7_SC_NS_4lessIS7_EELb1EEENS5_ISC_EEE25__emplace_unique_key_argsIS7_JNS_4pairIS7_SB_EEEEENSK_INS_15__tree_iteratorISC_PNS_11__tree_nodeISC_PvEElEEbEERKT_DpOT0_
00000001002a93e8 T __ZNSt3__16__treeINS_12__value_typeINS_12basic_stringIcNS_11char_traitsIcEENS_9allocatorIcEEEEPN2cu13CCuIFSRestore24_tagRestoreRangeDownInfoEEENS_19__map_value_compareIS7_SC_NS_4lessIS7_EELb1EEENS5_ISC_EEE4findIS7_EENS_15__tree_iteratorISC_PNS_11__tree_nodeISC_PvEElEERKT_
00000001002a92f4 T __ZNSt3__16__treeINS_12__value_typeINS_12basic_stringIcNS_11char_traitsIcEENS_9allocatorIcEEEEPN2cu13CCuIFSRestore24_tagRestoreRangeDownInfoEEENS_19__map_value_compareIS7_SC_NS_4lessIS7_EELb1EEENS5_ISC_EEE5clearEv
00000001002a9ee4 T __ZNSt3__16__treeINS_12__value_typeINS_12basic_stringIcNS_11char_traitsIcEENS_9allocatorIcEEEEPN2cu13CCuIFSRestore24_tagRestoreRangeDownInfoEEENS_19__map_value_compareIS7_SC_NS_4lessIS7_EELb1EEENS5_ISC_EEE5eraseENS_21__tree_const_iteratorISC_PNS_11__tree_nodeISC_PvEElEE
00000001002a90f0 T __ZNSt3__16__treeINS_12__value_typeINS_12basic_stringIcNS_11char_traitsIcEENS_9allocatorIcEEEEPN2cu13CCuIFSRestore24_tagRestoreRangeDownInfoEEENS_19__map_value_compareIS7_SC_NS_4lessIS7_EELb1EEENS5_ISC_EEE7destroyEPNS_11__tree_nodeISC_PvEE
00000001002ae8c4 T __ZNSt3__16__treeINS_12__value_typeINS_12basic_stringIcNS_11char_traitsIcEENS_9allocatorIcEEEEPN2cu15CMemoryTaskFileEEENS_19__map_value_compareIS7_SB_NS_4lessIS7_EELb1EEENS5_ISB_EEE12__find_equalIS7_EERPNS_16__tree_node_baseIPvEERPNS_15__tree_end_nodeISM_EERKT_
00000001002ae000 T __ZNSt3__16__treeINS_12__value_typeINS_12basic_stringIcNS_11char_traitsIcEENS_9allocatorIcEEEEPN2cu15CMemoryTaskFileEEENS_19__map_value_compareIS7_SB_NS_4lessIS7_EELb1EEENS5_ISB_EEE13__lower_boundIS7_EENS_15__tree_iteratorISB_PNS_11__tree_nodeISB_PvEElEERKT_SN_PNS_15__tree_end_nodeIPNS_16__tree_node_baseISL_EEEE
00000001002af2bc T __ZNSt3__16__treeINS_12__value_typeINS_12basic_stringIcNS_11char_traitsIcEENS_9allocatorIcEEEEPN2cu15CMemoryTaskFileEEENS_19__map_value_compareIS7_SB_NS_4lessIS7_EELb1EEENS5_ISB_EEE16__construct_nodeIJNS_4pairIS7_SA_EEEEENS_10unique_ptrINS_11__tree_nodeISB_PvEENS_22__tree_node_destructorINS5_ISO_EEEEEEDpOT_
00000001002af894 T __ZNSt3__16__treeINS_12__value_typeINS_12basic_stringIcNS_11char_traitsIcEENS_9allocatorIcEEEEPN2cu15CMemoryTaskFileEEENS_19__map_value_compareIS7_SB_NS_4lessIS7_EELb1EEENS5_ISB_EEE16__insert_node_atEPNS_15__tree_end_nodeIPNS_16__tree_node_baseIPvEEEERSM_SM_
00000001002ae4d0 T __ZNSt3__16__treeINS_12__value_typeINS_12basic_stringIcNS_11char_traitsIcEENS_9allocatorIcEEEEPN2cu15CMemoryTaskFileEEENS_19__map_value_compareIS7_SB_NS_4lessIS7_EELb1EEENS5_ISB_EEE25__emplace_unique_key_argsIS7_JNS_4pairIS7_SA_EEEEENSJ_INS_15__tree_iteratorISB_PNS_11__tree_nodeISB_PvEElEEbEERKT_DpOT0_
00000001002ad9d4 T __ZNSt3__16__treeINS_12__value_typeINS_12basic_stringIcNS_11char_traitsIcEENS_9allocatorIcEEEEPN2cu15CMemoryTaskFileEEENS_19__map_value_compareIS7_SB_NS_4lessIS7_EELb1EEENS5_ISB_EEE4findIS7_EENS_15__tree_iteratorISB_PNS_11__tree_nodeISB_PvEElEERKT_
00000001002ad8e0 T __ZNSt3__16__treeINS_12__value_typeINS_12basic_stringIcNS_11char_traitsIcEENS_9allocatorIcEEEEPN2cu15CMemoryTaskFileEEENS_19__map_value_compareIS7_SB_NS_4lessIS7_EELb1EEENS5_ISB_EEE5clearEv
00000001002af9d8 T __ZNSt3__16__treeINS_12__value_typeINS_12basic_stringIcNS_11char_traitsIcEENS_9allocatorIcEEEEPN2cu15CMemoryTaskFileEEENS_19__map_value_compareIS7_SB_NS_4lessIS7_EELb1EEENS5_ISB_EEE5eraseENS_21__tree_const_iteratorISB_PNS_11__tree_nodeISB_PvEElEE
00000001002ad7d4 T __ZNSt3__16__treeINS_12__value_typeINS_12basic_stringIcNS_11char_traitsIcEENS_9allocatorIcEEEEPN2cu15CMemoryTaskFileEEENS_19__map_value_compareIS7_SB_NS_4lessIS7_EELb1EEENS5_ISB_EEE7destroyEPNS_11__tree_nodeISB_PvEE
00000001002f3d60 T __ZNSt3__16__treeINS_12__value_typeINS_12basic_stringIcNS_11char_traitsIcEENS_9allocatorIcEEEEPN2cu9CuResFileEEENS_19__map_value_compareIS7_SB_NS_4lessIS7_EELb1EEENS5_ISB_EEE12__find_equalIS7_EERPNS_16__tree_node_baseIPvEERPNS_15__tree_end_nodeISM_EERKT_
00000001002f64f4 T __ZNSt3__16__treeINS_12__value_typeINS_12basic_stringIcNS_11char_traitsIcEENS_9allocatorIcEEEEPN2cu9CuResFileEEENS_19__map_value_compareIS7_SB_NS_4lessIS7_EELb1EEENS5_ISB_EEE13__lower_boundIS7_EENS_15__tree_iteratorISB_PNS_11__tree_nodeISB_PvEElEERKT_SN_PNS_15__tree_end_nodeIPNS_16__tree_node_baseISL_EEEE
00000001002f4758 T __ZNSt3__16__treeINS_12__value_typeINS_12basic_stringIcNS_11char_traitsIcEENS_9allocatorIcEEEEPN2cu9CuResFileEEENS_19__map_value_compareIS7_SB_NS_4lessIS7_EELb1EEENS5_ISB_EEE16__construct_nodeIJNS_4pairIS7_SA_EEEEENS_10unique_ptrINS_11__tree_nodeISB_PvEENS_22__tree_node_destructorINS5_ISO_EEEEEEDpOT_
00000001002f4d30 T __ZNSt3__16__treeINS_12__value_typeINS_12basic_stringIcNS_11char_traitsIcEENS_9allocatorIcEEEEPN2cu9CuResFileEEENS_19__map_value_compareIS7_SB_NS_4lessIS7_EELb1EEENS5_ISB_EEE16__insert_node_atEPNS_15__tree_end_nodeIPNS_16__tree_node_baseIPvEEEERSM_SM_
00000001002f396c T __ZNSt3__16__treeINS_12__value_typeINS_12basic_stringIcNS_11char_traitsIcEENS_9allocatorIcEEEEPN2cu9CuResFileEEENS_19__map_value_compareIS7_SB_NS_4lessIS7_EELb1EEENS5_ISB_EEE25__emplace_unique_key_argsIS7_JNS_4pairIS7_SA_EEEEENSJ_INS_15__tree_iteratorISB_PNS_11__tree_nodeISB_PvEElEEbEERKT_DpOT0_
00000001002f5ec8 T __ZNSt3__16__treeINS_12__value_typeINS_12basic_stringIcNS_11char_traitsIcEENS_9allocatorIcEEEEPN2cu9CuResFileEEENS_19__map_value_compareIS7_SB_NS_4lessIS7_EELb1EEENS5_ISB_EEE4findIS7_EENS_15__tree_iteratorISB_PNS_11__tree_nodeISB_PvEElEERKT_
00000001002f3878 T __ZNSt3__16__treeINS_12__value_typeINS_12basic_stringIcNS_11char_traitsIcEENS_9allocatorIcEEEEPN2cu9CuResFileEEENS_19__map_value_compareIS7_SB_NS_4lessIS7_EELb1EEENS5_ISB_EEE5clearEv
00000001002f2efc T __ZNSt3__16__treeINS_12__value_typeINS_12basic_stringIcNS_11char_traitsIcEENS_9allocatorIcEEEEPN2cu9CuResFileEEENS_19__map_value_compareIS7_SB_NS_4lessIS7_EELb1EEENS5_ISB_EEE7destroyEPNS_11__tree_nodeISB_PvEE
00000001000eccd8 T __ZNSt3__16__treeINS_12__value_typeINS_12basic_stringIcNS_11char_traitsIcEENS_9allocatorIcEEEEPN6GCloud17ConfigureObserverEEENS_19__map_value_compareIS7_SB_NS_4lessIS7_EELb1EEENS5_ISB_EEE12__find_equalIS7_EERPNS_16__tree_node_baseIPvEERPNS_15__tree_end_nodeISM_EERKT_
00000001000ec414 T __ZNSt3__16__treeINS_12__value_typeINS_12basic_stringIcNS_11char_traitsIcEENS_9allocatorIcEEEEPN6GCloud17ConfigureObserverEEENS_19__map_value_compareIS7_SB_NS_4lessIS7_EELb1EEENS5_ISB_EEE13__lower_boundIS7_EENS_15__tree_iteratorISB_PNS_11__tree_nodeISB_PvEElEERKT_SN_PNS_15__tree_end_nodeIPNS_16__tree_node_baseISL_EEEE
00000001000ed6d0 T __ZNSt3__16__treeINS_12__value_typeINS_12basic_stringIcNS_11char_traitsIcEENS_9allocatorIcEEEEPN6GCloud17ConfigureObserverEEENS_19__map_value_compareIS7_SB_NS_4lessIS7_EELb1EEENS5_ISB_EEE16__construct_nodeIJNS_4pairIS7_SA_EEEEENS_10unique_ptrINS_11__tree_nodeISB_PvEENS_22__tree_node_destructorINS5_ISO_EEEEEEDpOT_
00000001000edca8 T __ZNSt3__16__treeINS_12__value_typeINS_12basic_stringIcNS_11char_traitsIcEENS_9allocatorIcEEEEPN6GCloud17ConfigureObserverEEENS_19__map_value_compareIS7_SB_NS_4lessIS7_EELb1EEENS5_ISB_EEE16__insert_node_atEPNS_15__tree_end_nodeIPNS_16__tree_node_baseIPvEEEERSM_SM_
00000001000ec8e4 T __ZNSt3__16__treeINS_12__value_typeINS_12basic_stringIcNS_11char_traitsIcEENS_9allocatorIcEEEEPN6GCloud17ConfigureObserverEEENS_19__map_value_compareIS7_SB_NS_4lessIS7_EELb1EEENS5_ISB_EEE25__emplace_unique_key_argsIS7_JNS_4pairIS7_SA_EEEEENSJ_INS_15__tree_iteratorISB_PNS_11__tree_nodeISB_PvEElEEbEERKT_DpOT0_
00000001000ebde8 T __ZNSt3__16__treeINS_12__value_typeINS_12basic_stringIcNS_11char_traitsIcEENS_9allocatorIcEEEEPN6GCloud17ConfigureObserverEEENS_19__map_value_compareIS7_SB_NS_4lessIS7_EELb1EEENS5_ISB_EEE4findIS7_EENS_15__tree_iteratorISB_PNS_11__tree_nodeISB_PvEElEERKT_
00000001000eddec T __ZNSt3__16__treeINS_12__value_typeINS_12basic_stringIcNS_11char_traitsIcEENS_9allocatorIcEEEEPN6GCloud17ConfigureObserverEEENS_19__map_value_compareIS7_SB_NS_4lessIS7_EELb1EEENS5_ISB_EEE5eraseENS_21__tree_const_iteratorISB_PNS_11__tree_nodeISB_PvEElEE
00000001000ebcdc T __ZNSt3__16__treeINS_12__value_typeINS_12basic_stringIcNS_11char_traitsIcEENS_9allocatorIcEEEEPN6GCloud17ConfigureObserverEEENS_19__map_value_compareIS7_SB_NS_4lessIS7_EELb1EEENS5_ISB_EEE7destroyEPNS_11__tree_nodeISB_PvEE
0000000100101c24 T __ZNSt3__16__treeINS_12__value_typeINS_12basic_stringIcNS_11char_traitsIcEENS_9allocatorIcEEEEPN6GCloud4Conn10IConnectorEEENS_19__map_value_compareIS7_SC_NS_4lessIS7_EELb1EEENS5_ISC_EEE7destroyEPNS_11__tree_nodeISC_PvEE
0000000100101a48 T __ZNSt3__16__treeINS_12__value_typeINS_12basic_stringIcNS_11char_traitsIcEENS_9allocatorIcEEEEPN6GCloud4Conn17ConnectorObserverEEENS_19__map_value_compareIS7_SC_NS_4lessIS7_EELb1EEENS5_ISC_EEE7destroyEPNS_11__tree_nodeISC_PvEE
00000001000ca580 T __ZNSt3__16__treeINS_12__value_typeINS_12basic_stringIcNS_11char_traitsIcEENS_9allocatorIcEEEEPN6GCloud7IPluginEEENS_19__map_value_compareIS7_SB_NS_4lessIS7_EELb1EEENS5_ISB_EEE12__find_equalIS7_EERPNS_16__tree_node_baseIPvEERPNS_15__tree_end_nodeISM_EERKT_
00000001000c9cbc T __ZNSt3__16__treeINS_12__value_typeINS_12basic_stringIcNS_11char_traitsIcEENS_9allocatorIcEEEEPN6GCloud7IPluginEEENS_19__map_value_compareIS7_SB_NS_4lessIS7_EELb1EEENS5_ISB_EEE13__lower_boundIS7_EENS_15__tree_iteratorISB_PNS_11__tree_nodeISB_PvEElEERKT_SN_PNS_15__tree_end_nodeIPNS_16__tree_node_baseISL_EEEE
00000001000caf78 T __ZNSt3__16__treeINS_12__value_typeINS_12basic_stringIcNS_11char_traitsIcEENS_9allocatorIcEEEEPN6GCloud7IPluginEEENS_19__map_value_compareIS7_SB_NS_4lessIS7_EELb1EEENS5_ISB_EEE16__construct_nodeIJNS_4pairIS7_SA_EEEEENS_10unique_ptrINS_11__tree_nodeISB_PvEENS_22__tree_node_destructorINS5_ISO_EEEEEEDpOT_
00000001000cb550 T __ZNSt3__16__treeINS_12__value_typeINS_12basic_stringIcNS_11char_traitsIcEENS_9allocatorIcEEEEPN6GCloud7IPluginEEENS_19__map_value_compareIS7_SB_NS_4lessIS7_EELb1EEENS5_ISB_EEE16__insert_node_atEPNS_15__tree_end_nodeIPNS_16__tree_node_baseIPvEEEERSM_SM_
00000001000ca18c T __ZNSt3__16__treeINS_12__value_typeINS_12basic_stringIcNS_11char_traitsIcEENS_9allocatorIcEEEEPN6GCloud7IPluginEEENS_19__map_value_compareIS7_SB_NS_4lessIS7_EELb1EEENS5_ISB_EEE25__emplace_unique_key_argsIS7_JNS_4pairIS7_SA_EEEEENSJ_INS_15__tree_iteratorISB_PNS_11__tree_nodeISB_PvEElEEbEERKT_DpOT0_
00000001000c9690 T __ZNSt3__16__treeINS_12__value_typeINS_12basic_stringIcNS_11char_traitsIcEENS_9allocatorIcEEEEPN6GCloud7IPluginEEENS_19__map_value_compareIS7_SB_NS_4lessIS7_EELb1EEENS5_ISB_EEE4findIS7_EENS_15__tree_iteratorISB_PNS_11__tree_nodeISB_PvEElEERKT_
00000001000cb908 T __ZNSt3__16__treeINS_12__value_typeINS_12basic_stringIcNS_11char_traitsIcEENS_9allocatorIcEEEEPN6GCloud7IPluginEEENS_19__map_value_compareIS7_SB_NS_4lessIS7_EELb1EEENS5_ISB_EEE5clearEv
00000001000cb694 T __ZNSt3__16__treeINS_12__value_typeINS_12basic_stringIcNS_11char_traitsIcEENS_9allocatorIcEEEEPN6GCloud7IPluginEEENS_19__map_value_compareIS7_SB_NS_4lessIS7_EELb1EEENS5_ISB_EEE5eraseENS_21__tree_const_iteratorISB_PNS_11__tree_nodeISB_PvEElEE
00000001000c9550 T __ZNSt3__16__treeINS_12__value_typeINS_12basic_stringIcNS_11char_traitsIcEENS_9allocatorIcEEEEPN6GCloud7IPluginEEENS_19__map_value_compareIS7_SB_NS_4lessIS7_EELb1EEENS5_ISB_EEE7destroyEPNS_11__tree_nodeISB_PvEE
00000001002d7598 T __ZNSt3__16__treeINS_12__value_typeINS_12basic_stringIcNS_11char_traitsIcEENS_9allocatorIcEEEES7_EENS_19__map_value_compareIS7_S8_NS_4lessIS7_EELb1EEENS5_IS8_EEE12__find_equalIS7_EERPNS_16__tree_node_baseIPvEERPNS_15__tree_end_nodeISJ_EERKT_
000000010036d108 T __ZNSt3__16__treeINS_12__value_typeINS_12basic_stringIcNS_11char_traitsIcEENS_9allocatorIcEEEES7_EENS_19__map_value_compareIS7_S8_NS_4lessIS7_EELb1EEENS5_IS8_EEE13__lower_boundIS7_EENS_15__tree_iteratorIS8_PNS_11__tree_nodeIS8_PvEElEERKT_SK_PNS_15__tree_end_nodeIPNS_16__tree_node_baseISI_EEEE
00000001002d58c4 T __ZNSt3__16__treeINS_12__value_typeINS_12basic_stringIcNS_11char_traitsIcEENS_9allocatorIcEEEES7_EENS_19__map_value_compareIS7_S8_NS_4lessIS7_EELb1EEENS5_IS8_EEE14__assign_multiINS_21__tree_const_iteratorIS8_PNS_11__tree_nodeIS8_PvEElEEEEvT_SM_
00000001002d667c T __ZNSt3__16__treeINS_12__value_typeINS_12basic_stringIcNS_11char_traitsIcEENS_9allocatorIcEEEES7_EENS_19__map_value_compareIS7_S8_NS_4lessIS7_EELb1EEENS5_IS8_EEE15__emplace_multiIJRKNS_4pairIKS7_S7_EEEEENS_15__tree_iteratorIS8_PNS_11__tree_nodeIS8_PvEElEEDpOT_
00000001002d7f90 T __ZNSt3__16__treeINS_12__value_typeINS_12basic_stringIcNS_11char_traitsIcEENS_9allocatorIcEEEES7_EENS_19__map_value_compareIS7_S8_NS_4lessIS7_EELb1EEENS5_IS8_EEE16__construct_nodeIJNS_4pairIS7_S7_EEEEENS_10unique_ptrINS_11__tree_nodeIS8_PvEENS_22__tree_node_destructorINS5_ISL_EEEEEEDpOT_
00000001002f56c0 T __ZNSt3__16__treeINS_12__value_typeINS_12basic_stringIcNS_11char_traitsIcEENS_9allocatorIcEEEES7_EENS_19__map_value_compareIS7_S8_NS_4lessIS7_EELb1EEENS5_IS8_EEE16__construct_nodeIJRKNS_21piecewise_construct_tENS_5tupleIJRKS7_EEENSJ_IJEEEEEENS_10unique_ptrINS_11__tree_nodeIS8_PvEENS_22__tree_node_destructorINS5_ISR_EEEEEEDpOT_
00000001002d6a4c T __ZNSt3__16__treeINS_12__value_typeINS_12basic_stringIcNS_11char_traitsIcEENS_9allocatorIcEEEES7_EENS_19__map_value_compareIS7_S8_NS_4lessIS7_EELb1EEENS5_IS8_EEE16__construct_nodeIJRKNS_4pairIKS7_S7_EEEEENS_10unique_ptrINS_11__tree_nodeIS8_PvEENS_22__tree_node_destructorINS5_ISO_EEEEEEDpOT_
00000001002d6008 T __ZNSt3__16__treeINS_12__value_typeINS_12basic_stringIcNS_11char_traitsIcEENS_9allocatorIcEEEES7_EENS_19__map_value_compareIS7_S8_NS_4lessIS7_EELb1EEENS5_IS8_EEE16__find_leaf_highERPNS_15__tree_end_nodeIPNS_16__tree_node_baseIPvEEEERKS7_
00000001002d6580 T __ZNSt3__16__treeINS_12__value_typeINS_12basic_stringIcNS_11char_traitsIcEENS_9allocatorIcEEEES7_EENS_19__map_value_compareIS7_S8_NS_4lessIS7_EELb1EEENS5_IS8_EEE16__insert_node_atEPNS_15__tree_end_nodeIPNS_16__tree_node_baseIPvEEEERSJ_SJ_
00000001002d5f1c T __ZNSt3__16__treeINS_12__value_typeINS_12basic_stringIcNS_11char_traitsIcEENS_9allocatorIcEEEES7_EENS_19__map_value_compareIS7_S8_NS_4lessIS7_EELb1EEENS5_IS8_EEE19__node_insert_multiEPNS_11__tree_nodeIS8_PvEE
00000001002d71a4 T __ZNSt3__16__treeINS_12__value_typeINS_12basic_stringIcNS_11char_traitsIcEENS_9allocatorIcEEEES7_EENS_19__map_value_compareIS7_S8_NS_4lessIS7_EELb1EEENS5_IS8_EEE25__emplace_unique_key_argsIS7_JNS_4pairIS7_S7_EEEEENSG_INS_15__tree_iteratorIS8_PNS_11__tree_nodeIS8_PvEElEEbEERKT_DpOT0_
00000001002f52ac T __ZNSt3__16__treeINS_12__value_typeINS_12basic_stringIcNS_11char_traitsIcEENS_9allocatorIcEEEES7_EENS_19__map_value_compareIS7_S8_NS_4lessIS7_EELb1EEENS5_IS8_EEE25__emplace_unique_key_argsIS7_JRKNS_21piecewise_construct_tENS_5tupleIJRKS7_EEENSJ_IJEEEEEENS_4pairINS_15__tree_iteratorIS8_PNS_11__tree_nodeIS8_PvEElEEbEERKT_DpOT0_
000000010036cadc T __ZNSt3__16__treeINS_12__value_typeINS_12basic_stringIcNS_11char_traitsIcEENS_9allocatorIcEEEES7_EENS_19__map_value_compareIS7_S8_NS_4lessIS7_EELb1EEENS5_IS8_EEE4findIS7_EENS_15__tree_iteratorIS8_PNS_11__tree_nodeIS8_PvEElEERKT_
00000001002d70b0 T __ZNSt3__16__treeINS_12__value_typeINS_12basic_stringIcNS_11char_traitsIcEENS_9allocatorIcEEEES7_EENS_19__map_value_compareIS7_S8_NS_4lessIS7_EELb1EEENS5_IS8_EEE5clearEv
0000000100401658 T __ZNSt3__16__treeINS_12__value_typeINS_12basic_stringIcNS_11char_traitsIcEENS_9allocatorIcEEEES7_EENS_19__map_value_compareIS7_S8_NS_4lessIS7_EELb1EEENS5_IS8_EEE5eraseENS_21__tree_const_iteratorIS8_PNS_11__tree_nodeIS8_PvEElEE
00000001002ca150 T __ZNSt3__16__treeINS_12__value_typeINS_12basic_stringIcNS_11char_traitsIcEENS_9allocatorIcEEEES7_EENS_19__map_value_compareIS7_S8_NS_4lessIS7_EELb1EEENS5_IS8_EEE7destroyEPNS_11__tree_nodeIS8_PvEE
00000001002d5e30 T __ZNSt3__16__treeINS_12__value_typeINS_12basic_stringIcNS_11char_traitsIcEENS_9allocatorIcEEEES7_EENS_19__map_value_compareIS7_S8_NS_4lessIS7_EELb1EEENS5_IS8_EEE8__detachEPNS_11__tree_nodeIS8_PvEE
00000001002d5d30 T __ZNSt3__16__treeINS_12__value_typeINS_12basic_stringIcNS_11char_traitsIcEENS_9allocatorIcEEEES7_EENS_19__map_value_compareIS7_S8_NS_4lessIS7_EELb1EEENS5_IS8_EEE8__detachEv
00000001002d5770 T __ZNSt3__16__treeINS_12__value_typeINS_12basic_stringIcNS_11char_traitsIcEENS_9allocatorIcEEEES7_EENS_19__map_value_compareIS7_S8_NS_4lessIS7_EELb1EEENS5_IS8_EEEaSERKSE_
00000001002db534 T __ZNSt3__16__treeINS_12__value_typeINS_12basic_stringIcNS_11char_traitsIcEENS_9allocatorIcEEEExEENS_19__map_value_compareIS7_S8_NS_4lessIS7_EELb1EEENS5_IS8_EEE12__find_equalIS7_EERPNS_16__tree_node_baseIPvEERPNS_15__tree_end_nodeISJ_EERKT_
00000001002d8c84 T __ZNSt3__16__treeINS_12__value_typeINS_12basic_stringIcNS_11char_traitsIcEENS_9allocatorIcEEEExEENS_19__map_value_compareIS7_S8_NS_4lessIS7_EELb1EEENS5_IS8_EEE13__lower_boundIS7_EENS_15__tree_iteratorIS8_PNS_11__tree_nodeIS8_PvEElEERKT_SK_PNS_15__tree_end_nodeIPNS_16__tree_node_baseISI_EEEE
00000001002dbf2c T __ZNSt3__16__treeINS_12__value_typeINS_12basic_stringIcNS_11char_traitsIcEENS_9allocatorIcEEEExEENS_19__map_value_compareIS7_S8_NS_4lessIS7_EELb1EEENS5_IS8_EEE16__construct_nodeIJNS_4pairIS7_xEEEEENS_10unique_ptrINS_11__tree_nodeIS8_PvEENS_22__tree_node_destructorINS5_ISL_EEEEEEDpOT_
00000001002dc504 T __ZNSt3__16__treeINS_12__value_typeINS_12basic_stringIcNS_11char_traitsIcEENS_9allocatorIcEEEExEENS_19__map_value_compareIS7_S8_NS_4lessIS7_EELb1EEENS5_IS8_EEE16__insert_node_atEPNS_15__tree_end_nodeIPNS_16__tree_node_baseIPvEEEERSJ_SJ_
00000001002db140 T __ZNSt3__16__treeINS_12__value_typeINS_12basic_stringIcNS_11char_traitsIcEENS_9allocatorIcEEEExEENS_19__map_value_compareIS7_S8_NS_4lessIS7_EELb1EEENS5_IS8_EEE25__emplace_unique_key_argsIS7_JNS_4pairIS7_xEEEEENSG_INS_15__tree_iteratorIS8_PNS_11__tree_nodeIS8_PvEElEEbEERKT_DpOT0_
00000001002d8658 T __ZNSt3__16__treeINS_12__value_typeINS_12basic_stringIcNS_11char_traitsIcEENS_9allocatorIcEEEExEENS_19__map_value_compareIS7_S8_NS_4lessIS7_EELb1EEENS5_IS8_EEE4findIS7_EENS_15__tree_iteratorIS8_PNS_11__tree_nodeIS8_PvEElEERKT_
00000001002de404 T __ZNSt3__16__treeINS_12__value_typeINS_12basic_stringIcNS_11char_traitsIcEENS_9allocatorIcEEEExEENS_19__map_value_compareIS7_S8_NS_4lessIS7_EELb1EEENS5_IS8_EEE5clearEv
00000001002d9be8 T __ZNSt3__16__treeINS_12__value_typeINS_12basic_stringIcNS_11char_traitsIcEENS_9allocatorIcEEEExEENS_19__map_value_compareIS7_S8_NS_4lessIS7_EELb1EEENS5_IS8_EEE5eraseENS_21__tree_const_iteratorIS8_PNS_11__tree_nodeIS8_PvEElEE
00000001002cd6b8 T __ZNSt3__16__treeINS_12__value_typeINS_12basic_stringIcNS_11char_traitsIcEENS_9allocatorIcEEEExEENS_19__map_value_compareIS7_S8_NS_4lessIS7_EELb1EEENS5_IS8_EEE7destroyEPNS_11__tree_nodeIS8_PvEE
00000001001ddc88 T __ZNSt3__16__treeINS_12__value_typeIiNS_12basic_stringIcNS_11char_traitsIcEENS_9allocatorIcEEEEEENS_19__map_value_compareIiS8_NS_4lessIiEELb1EEENS5_IS8_EEE7destroyEPNS_11__tree_nodeIS8_PvEE
0000000100265ea0 T __ZNSt3__16__treeINS_12__value_typeIiPKcEENS_19__map_value_compareIiS4_NS_4lessIiEELb1EEENS_9allocatorIS4_EEE12__find_equalIiEERPNS_16__tree_node_baseIPvEENS_21__tree_const_iteratorIS4_PNS_11__tree_nodeIS4_SE_EElEERPNS_15__tree_end_nodeISG_EESH_RKT_
0000000100266cf0 T __ZNSt3__16__treeINS_12__value_typeIiPKcEENS_19__map_value_compareIiS4_NS_4lessIiEELb1EEENS_9allocatorIS4_EEE12__find_equalIiEERPNS_16__tree_node_baseIPvEERPNS_15__tree_end_nodeISG_EERKT_
00000001002666c4 T __ZNSt3__16__treeINS_12__value_typeIiPKcEENS_19__map_value_compareIiS4_NS_4lessIiEELb1EEENS_9allocatorIS4_EEE16__construct_nodeIJNS_4pairIiS3_EEEEENS_10unique_ptrINS_11__tree_nodeIS4_PvEENS_22__tree_node_destructorINS9_ISI_EEEEEEDpOT_
0000000100266bf4 T __ZNSt3__16__treeINS_12__value_typeIiPKcEENS_19__map_value_compareIiS4_NS_4lessIiEELb1EEENS_9allocatorIS4_EEE16__insert_node_atEPNS_15__tree_end_nodeIPNS_16__tree_node_baseIPvEEEERSG_SG_
0000000100265ae0 T __ZNSt3__16__treeINS_12__value_typeIiPKcEENS_19__map_value_compareIiS4_NS_4lessIiEELb1EEENS_9allocatorIS4_EEE30__emplace_hint_unique_key_argsIiJNS_4pairIiS3_EEEEENS_15__tree_iteratorIS4_PNS_11__tree_nodeIS4_PvEElEENS_21__tree_const_iteratorIS4_SJ_lEERKT_DpOT0_
000000010026588c T __ZNSt3__16__treeINS_12__value_typeIiPKcEENS_19__map_value_compareIiS4_NS_4lessIiEELb1EEENS_9allocatorIS4_EEE7destroyEPNS_11__tree_nodeIS4_PvEE
000000010031bb88 T __ZNSt3__16__treeINS_12__value_typeIjN13IFSDownloader10error_infoEEENS_19__map_value_compareIjS4_NS_4lessIjEELb1EEENS_9allocatorIS4_EEE12__find_equalIjEERPNS_16__tree_node_baseIPvEERPNS_15__tree_end_nodeISG_EERKT_
000000010031b6a0 T __ZNSt3__16__treeINS_12__value_typeIjN13IFSDownloader10error_infoEEENS_19__map_value_compareIjS4_NS_4lessIjEELb1EEENS_9allocatorIS4_EEE13__lower_boundIjEENS_15__tree_iteratorIS4_PNS_11__tree_nodeIS4_PvEElEERKT_SH_PNS_15__tree_end_nodeIPNS_16__tree_node_baseISF_EEEE
000000010031bde0 T __ZNSt3__16__treeINS_12__value_typeIjN13IFSDownloader10error_infoEEENS_19__map_value_compareIjS4_NS_4lessIjEELb1EEENS_9allocatorIS4_EEE16__construct_nodeIJRKNS_21piecewise_construct_tENS_5tupleIJOjEEENSG_IJEEEEEENS_10unique_ptrINS_11__tree_nodeIS4_PvEENS_22__tree_node_destructorINS9_ISN_EEEEEEDpOT_
000000010031c518 T __ZNSt3__16__treeINS_12__value_typeIjN13IFSDownloader10error_infoEEENS_19__map_value_compareIjS4_NS_4lessIjEELb1EEENS_9allocatorIS4_EEE16__insert_node_atEPNS_15__tree_end_nodeIPNS_16__tree_node_baseIPvEEEERSG_SG_
000000010031b78c T __ZNSt3__16__treeINS_12__value_typeIjN13IFSDownloader10error_infoEEENS_19__map_value_compareIjS4_NS_4lessIjEELb1EEENS_9allocatorIS4_EEE25__emplace_unique_key_argsIjJRKNS_21piecewise_construct_tENS_5tupleIJOjEEENSG_IJEEEEEENS_4pairINS_15__tree_iteratorIS4_PNS_11__tree_nodeIS4_PvEElEEbEERKT_DpOT0_
000000010031b448 T __ZNSt3__16__treeINS_12__value_typeIjN13IFSDownloader10error_infoEEENS_19__map_value_compareIjS4_NS_4lessIjEELb1EEENS_9allocatorIS4_EEE4findIjEENS_15__tree_iteratorIS4_PNS_11__tree_nodeIS4_PvEElEERKT_
000000010031a88c T __ZNSt3__16__treeINS_12__value_typeIjN13IFSDownloader10error_infoEEENS_19__map_value_compareIjS4_NS_4lessIjEELb1EEENS_9allocatorIS4_EEE7destroyEPNS_11__tree_nodeIS4_PvEE
000000010031cc2c T __ZNSt3__16__treeINS_12__value_typeIjN13IFSDownloader9task_infoEEENS_19__map_value_compareIjS4_NS_4lessIjEELb1EEENS_9allocatorIS4_EEE12__find_equalIjEERPNS_16__tree_node_baseIPvEERPNS_15__tree_end_nodeISG_EERKT_
000000010031afdc T __ZNSt3__16__treeINS_12__value_typeIjN13IFSDownloader9task_infoEEENS_19__map_value_compareIjS4_NS_4lessIjEELb1EEENS_9allocatorIS4_EEE13__lower_boundIjEENS_15__tree_iteratorIS4_PNS_11__tree_nodeIS4_PvEElEERKT_SH_PNS_15__tree_end_nodeIPNS_16__tree_node_baseISF_EEEE
000000010031b0c8 T __ZNSt3__16__treeINS_12__value_typeIjN13IFSDownloader9task_infoEEENS_19__map_value_compareIjS4_NS_4lessIjEELb1EEENS_9allocatorIS4_EEE14__erase_uniqueIjEEmRKT_
000000010031ce84 T __ZNSt3__16__treeINS_12__value_typeIjN13IFSDownloader9task_infoEEENS_19__map_value_compareIjS4_NS_4lessIjEELb1EEENS_9allocatorIS4_EEE16__construct_nodeIJRKNS_21piecewise_construct_tENS_5tupleIJRKjEEENSG_IJEEEEEENS_10unique_ptrINS_11__tree_nodeIS4_PvEENS_22__tree_node_destructorINS9_ISO_EEEEEEDpOT_
000000010031d5c4 T __ZNSt3__16__treeINS_12__value_typeIjN13IFSDownloader9task_infoEEENS_19__map_value_compareIjS4_NS_4lessIjEELb1EEENS_9allocatorIS4_EEE16__insert_node_atEPNS_15__tree_end_nodeIPNS_16__tree_node_baseIPvEEEERSG_SG_
000000010031c830 T __ZNSt3__16__treeINS_12__value_typeIjN13IFSDownloader9task_infoEEENS_19__map_value_compareIjS4_NS_4lessIjEELb1EEENS_9allocatorIS4_EEE25__emplace_unique_key_argsIjJRKNS_21piecewise_construct_tENS_5tupleIJRKjEEENSG_IJEEEEEENS_4pairINS_15__tree_iteratorIS4_PNS_11__tree_nodeIS4_PvEElEEbEERKT_DpOT0_
000000010031ad84 T __ZNSt3__16__treeINS_12__value_typeIjN13IFSDownloader9task_infoEEENS_19__map_value_compareIjS4_NS_4lessIjEELb1EEENS_9allocatorIS4_EEE4findIjEENS_15__tree_iteratorIS4_PNS_11__tree_nodeIS4_PvEElEERKT_
000000010031b1e4 T __ZNSt3__16__treeINS_12__value_typeIjN13IFSDownloader9task_infoEEENS_19__map_value_compareIjS4_NS_4lessIjEELb1EEENS_9allocatorIS4_EEE5eraseENS_21__tree_const_iteratorIS4_PNS_11__tree_nodeIS4_PvEElEE
000000010031a6bc T __ZNSt3__16__treeINS_12__value_typeIjN13IFSDownloader9task_infoEEENS_19__map_value_compareIjS4_NS_4lessIjEELb1EEENS_9allocatorIS4_EEE7destroyEPNS_11__tree_nodeIS4_PvEE
000000010024e5bc T __ZNSt3__16__treeINS_12__value_typeIjN2cu15CIIPSFileWalker11WALKER_INFOEEENS_19__map_value_compareIjS5_NS_4lessIjEELb1EEENS_9allocatorIS5_EEE12__find_equalIjEERPNS_16__tree_node_baseIPvEERPNS_15__tree_end_nodeISH_EERKT_
000000010024f0e8 T __ZNSt3__16__treeINS_12__value_typeIjN2cu15CIIPSFileWalker11WALKER_INFOEEENS_19__map_value_compareIjS5_NS_4lessIjEELb1EEENS_9allocatorIS5_EEE13__lower_boundIjEENS_15__tree_iteratorIS5_PNS_11__tree_nodeIS5_PvEElEERKT_SI_PNS_15__tree_end_nodeIPNS_16__tree_node_baseISG_EEEE
000000010024e814 T __ZNSt3__16__treeINS_12__value_typeIjN2cu15CIIPSFileWalker11WALKER_INFOEEENS_19__map_value_compareIjS5_NS_4lessIjEELb1EEENS_9allocatorIS5_EEE16__construct_nodeIJNS_4pairIjS4_EEEEENS_10unique_ptrINS_11__tree_nodeIS5_PvEENS_22__tree_node_destructorINSA_ISJ_EEEEEEDpOT_
000000010024ed4c T __ZNSt3__16__treeINS_12__value_typeIjN2cu15CIIPSFileWalker11WALKER_INFOEEENS_19__map_value_compareIjS5_NS_4lessIjEELb1EEENS_9allocatorIS5_EEE16__insert_node_atEPNS_15__tree_end_nodeIPNS_16__tree_node_baseIPvEEEERSH_SH_
000000010024e1e0 T __ZNSt3__16__treeINS_12__value_typeIjN2cu15CIIPSFileWalker11WALKER_INFOEEENS_19__map_value_compareIjS5_NS_4lessIjEELb1EEENS_9allocatorIS5_EEE25__emplace_unique_key_argsIjJNS_4pairIjS4_EEEEENSE_INS_15__tree_iteratorIS5_PNS_11__tree_nodeIS5_PvEElEEbEERKT_DpOT0_
000000010024ee90 T __ZNSt3__16__treeINS_12__value_typeIjN2cu15CIIPSFileWalker11WALKER_INFOEEENS_19__map_value_compareIjS5_NS_4lessIjEELb1EEENS_9allocatorIS5_EEE4findIjEENS_15__tree_iteratorIS5_PNS_11__tree_nodeIS5_PvEElEERKT_
000000010024f1d4 T __ZNSt3__16__treeINS_12__value_typeIjN2cu15CIIPSFileWalker11WALKER_INFOEEENS_19__map_value_compareIjS5_NS_4lessIjEELb1EEENS_9allocatorIS5_EEE5eraseENS_21__tree_const_iteratorIS5_PNS_11__tree_nodeIS5_PvEElEE
000000010024b8b8 T __ZNSt3__16__treeINS_12__value_typeIjN2cu15CIIPSFileWalker11WALKER_INFOEEENS_19__map_value_compareIjS5_NS_4lessIjEELb1EEENS_9allocatorIS5_EEE7destroyEPNS_11__tree_nodeIS5_PvEE
00000001001befa4 T __ZNSt3__16__treeINS_12__value_typeIjN6GCloud12AnalysisInfoEEENS_19__map_value_compareIjS4_NS_4lessIjEELb1EEENS_9allocatorIS4_EEE12__find_equalIjEERPNS_16__tree_node_baseIPvEERPNS_15__tree_end_nodeISG_EERKT_
00000001001c0074 T __ZNSt3__16__treeINS_12__value_typeIjN6GCloud12AnalysisInfoEEENS_19__map_value_compareIjS4_NS_4lessIjEELb1EEENS_9allocatorIS4_EEE13__lower_boundIjEENS_15__tree_iteratorIS4_PNS_11__tree_nodeIS4_PvEElEERKT_SH_PNS_15__tree_end_nodeIPNS_16__tree_node_baseISF_EEEE
00000001001c0cbc T __ZNSt3__16__treeINS_12__value_typeIjN6GCloud12AnalysisInfoEEENS_19__map_value_compareIjS4_NS_4lessIjEELb1EEENS_9allocatorIS4_EEE14__erase_uniqueIjEEmRKT_
00000001001bf1fc T __ZNSt3__16__treeINS_12__value_typeIjN6GCloud12AnalysisInfoEEENS_19__map_value_compareIjS4_NS_4lessIjEELb1EEENS_9allocatorIS4_EEE16__construct_nodeIJNS_4pairIKjS3_EEEEENS_10unique_ptrINS_11__tree_nodeIS4_PvEENS_22__tree_node_destructorINS9_ISJ_EEEEEEDpOT_
00000001001c0574 T __ZNSt3__16__treeINS_12__value_typeIjN6GCloud12AnalysisInfoEEENS_19__map_value_compareIjS4_NS_4lessIjEELb1EEENS_9allocatorIS4_EEE16__construct_nodeIJRKNS_21piecewise_construct_tENS_5tupleIJRKjEEENSG_IJEEEEEENS_10unique_ptrINS_11__tree_nodeIS4_PvEENS_22__tree_node_destructorINS9_ISO_EEEEEEDpOT_
00000001001bf6f0 T __ZNSt3__16__treeINS_12__value_typeIjN6GCloud12AnalysisInfoEEENS_19__map_value_compareIjS4_NS_4lessIjEELb1EEENS_9allocatorIS4_EEE16__insert_node_atEPNS_15__tree_end_nodeIPNS_16__tree_node_baseIPvEEEERSG_SG_
00000001001bebb0 T __ZNSt3__16__treeINS_12__value_typeIjN6GCloud12AnalysisInfoEEENS_19__map_value_compareIjS4_NS_4lessIjEELb1EEENS_9allocatorIS4_EEE25__emplace_unique_key_argsIjJNS_4pairIKjS3_EEEEENSD_INS_15__tree_iteratorIS4_PNS_11__tree_nodeIS4_PvEElEEbEERKT_DpOT0_
00000001001c0160 T __ZNSt3__16__treeINS_12__value_typeIjN6GCloud12AnalysisInfoEEENS_19__map_value_compareIjS4_NS_4lessIjEELb1EEENS_9allocatorIS4_EEE25__emplace_unique_key_argsIjJRKNS_21piecewise_construct_tENS_5tupleIJRKjEEENSG_IJEEEEEENS_4pairINS_15__tree_iteratorIS4_PNS_11__tree_nodeIS4_PvEElEEbEERKT_DpOT0_
00000001001bfe1c T __ZNSt3__16__treeINS_12__value_typeIjN6GCloud12AnalysisInfoEEENS_19__map_value_compareIjS4_NS_4lessIjEELb1EEENS_9allocatorIS4_EEE4findIjEENS_15__tree_iteratorIS4_PNS_11__tree_nodeIS4_PvEElEERKT_
00000001001c0dd8 T __ZNSt3__16__treeINS_12__value_typeIjN6GCloud12AnalysisInfoEEENS_19__map_value_compareIjS4_NS_4lessIjEELb1EEENS_9allocatorIS4_EEE5eraseENS_21__tree_const_iteratorIS4_PNS_11__tree_nodeIS4_PvEElEE
00000001001be268 T __ZNSt3__16__treeINS_12__value_typeIjN6GCloud12AnalysisInfoEEENS_19__map_value_compareIjS4_NS_4lessIjEELb1EEENS_9allocatorIS4_EEE7destroyEPNS_11__tree_nodeIS4_PvEE
000000010046b810 T __ZNSt3__16__treeINS_12__value_typeIjP22cueifs_temp_filehandleEENS_19__map_value_compareIjS4_NS_4lessIjEELb1EEENS_9allocatorIS4_EEE12__find_equalIjEERPNS_16__tree_node_baseIPvEERPNS_15__tree_end_nodeISG_EERKT_
000000010046b348 T __ZNSt3__16__treeINS_12__value_typeIjP22cueifs_temp_filehandleEENS_19__map_value_compareIjS4_NS_4lessIjEELb1EEENS_9allocatorIS4_EEE13__lower_boundIjEENS_15__tree_iteratorIS4_PNS_11__tree_nodeIS4_PvEElEERKT_SH_PNS_15__tree_end_nodeIPNS_16__tree_node_baseISF_EEEE
000000010046ba68 T __ZNSt3__16__treeINS_12__value_typeIjP22cueifs_temp_filehandleEENS_19__map_value_compareIjS4_NS_4lessIjEELb1EEENS_9allocatorIS4_EEE16__construct_nodeIJNS_4pairIjS3_EEEEENS_10unique_ptrINS_11__tree_nodeIS4_PvEENS_22__tree_node_destructorINS9_ISI_EEEEEEDpOT_
000000010046bf98 T __ZNSt3__16__treeINS_12__value_typeIjP22cueifs_temp_filehandleEENS_19__map_value_compareIjS4_NS_4lessIjEELb1EEENS_9allocatorIS4_EEE16__insert_node_atEPNS_15__tree_end_nodeIPNS_16__tree_node_baseIPvEEEERSG_SG_
000000010046b434 T __ZNSt3__16__treeINS_12__value_typeIjP22cueifs_temp_filehandleEENS_19__map_value_compareIjS4_NS_4lessIjEELb1EEENS_9allocatorIS4_EEE25__emplace_unique_key_argsIjJNS_4pairIjS3_EEEEENSD_INS_15__tree_iteratorIS4_PNS_11__tree_nodeIS4_PvEElEEbEERKT_DpOT0_
000000010046b0f0 T __ZNSt3__16__treeINS_12__value_typeIjP22cueifs_temp_filehandleEENS_19__map_value_compareIjS4_NS_4lessIjEELb1EEENS_9allocatorIS4_EEE4findIjEENS_15__tree_iteratorIS4_PNS_11__tree_nodeIS4_PvEElEERKT_
000000010046c340 T __ZNSt3__16__treeINS_12__value_typeIjP22cueifs_temp_filehandleEENS_19__map_value_compareIjS4_NS_4lessIjEELb1EEENS_9allocatorIS4_EEE5clearEv
000000010046c0dc T __ZNSt3__16__treeINS_12__value_typeIjP22cueifs_temp_filehandleEENS_19__map_value_compareIjS4_NS_4lessIjEELb1EEENS_9allocatorIS4_EEE5eraseENS_21__tree_const_iteratorIS4_PNS_11__tree_nodeIS4_PvEElEE
000000010046aff0 T __ZNSt3__16__treeINS_12__value_typeIjP22cueifs_temp_filehandleEENS_19__map_value_compareIjS4_NS_4lessIjEELb1EEENS_9allocatorIS4_EEE7destroyEPNS_11__tree_nodeIS4_PvEE
00000001002d1bac T __ZNSt3__16__treeINS_12__value_typeIjjEENS_19__map_value_compareIjS2_NS_4lessIjEELb1EEENS_9allocatorIS2_EEE12__find_equalIjEERPNS_16__tree_node_baseIPvEERPNS_15__tree_end_nodeISE_EERKT_
00000001002de750 T __ZNSt3__16__treeINS_12__value_typeIjjEENS_19__map_value_compareIjS2_NS_4lessIjEELb1EEENS_9allocatorIS2_EEE13__lower_boundIjEENS_15__tree_iteratorIS2_PNS_11__tree_nodeIS2_PvEElEERKT_SF_PNS_15__tree_end_nodeIPNS_16__tree_node_baseISD_EEEE
00000001002d1e04 T __ZNSt3__16__treeINS_12__value_typeIjjEENS_19__map_value_compareIjS2_NS_4lessIjEELb1EEENS_9allocatorIS2_EEE16__construct_nodeIJNS_4pairIjjEEEEENS_10unique_ptrINS_11__tree_nodeIS2_PvEENS_22__tree_node_destructorINS7_ISG_EEEEEEDpOT_
00000001002d4738 T __ZNSt3__16__treeINS_12__value_typeIjjEENS_19__map_value_compareIjS2_NS_4lessIjEELb1EEENS_9allocatorIS2_EEE16__construct_nodeIJRKNS_21piecewise_construct_tENS_5tupleIJRKjEEENSE_IJEEEEEENS_10unique_ptrINS_11__tree_nodeIS2_PvEENS_22__tree_node_destructorINS7_ISM_EEEEEEDpOT_
00000001002d2334 T __ZNSt3__16__treeINS_12__value_typeIjjEENS_19__map_value_compareIjS2_NS_4lessIjEELb1EEENS_9allocatorIS2_EEE16__insert_node_atEPNS_15__tree_end_nodeIPNS_16__tree_node_baseIPvEEEERSE_SE_
00000001002d17d0 T __ZNSt3__16__treeINS_12__value_typeIjjEENS_19__map_value_compareIjS2_NS_4lessIjEELb1EEENS_9allocatorIS2_EEE25__emplace_unique_key_argsIjJNS_4pairIjjEEEEENSB_INS_15__tree_iteratorIS2_PNS_11__tree_nodeIS2_PvEElEEbEERKT_DpOT0_
00000001002d433c T __ZNSt3__16__treeINS_12__value_typeIjjEENS_19__map_value_compareIjS2_NS_4lessIjEELb1EEENS_9allocatorIS2_EEE25__emplace_unique_key_argsIjJRKNS_21piecewise_construct_tENS_5tupleIJRKjEEENSE_IJEEEEEENS_4pairINS_15__tree_iteratorIS2_PNS_11__tree_nodeIS2_PvEElEEbEERKT_DpOT0_
00000001002de4f8 T __ZNSt3__16__treeINS_12__value_typeIjjEENS_19__map_value_compareIjS2_NS_4lessIjEELb1EEENS_9allocatorIS2_EEE4findIjEENS_15__tree_iteratorIS2_PNS_11__tree_nodeIS2_PvEElEERKT_
00000001002ca508 T __ZNSt3__16__treeINS_12__value_typeIjjEENS_19__map_value_compareIjS2_NS_4lessIjEELb1EEENS_9allocatorIS2_EEE7destroyEPNS_11__tree_nodeIS2_PvEE
000000010051baf4 T __ZNSt3__16__treeINS_12__value_typeImPvEENS_19__map_value_compareImS3_NS_4lessImEELb1EEENS_9allocatorIS3_EEE12__find_equalImEERPNS_16__tree_node_baseIS2_EERPNS_15__tree_end_nodeISE_EERKT_
000000010051c6c0 T __ZNSt3__16__treeINS_12__value_typeImPvEENS_19__map_value_compareImS3_NS_4lessImEELb1EEENS_9allocatorIS3_EEE13__lower_boundImEENS_15__tree_iteratorIS3_PNS_11__tree_nodeIS3_S2_EElEERKT_SF_PNS_15__tree_end_nodeIPNS_16__tree_node_baseIS2_EEEE
000000010051bd4c T __ZNSt3__16__treeINS_12__value_typeImPvEENS_19__map_value_compareImS3_NS_4lessImEELb1EEENS_9allocatorIS3_EEE16__construct_nodeIJRKNS_21piecewise_construct_tENS_5tupleIJRKmEEENSF_IJEEEEEENS_10unique_ptrINS_11__tree_nodeIS3_S2_EENS_22__tree_node_destructorINS8_ISM_EEEEEEDpOT_
000000010051c324 T __ZNSt3__16__treeINS_12__value_typeImPvEENS_19__map_value_compareImS3_NS_4lessImEELb1EEENS_9allocatorIS3_EEE16__insert_node_atEPNS_15__tree_end_nodeIPNS_16__tree_node_baseIS2_EEEERSE_SE_
000000010051b6f8 T __ZNSt3__16__treeINS_12__value_typeImPvEENS_19__map_value_compareImS3_NS_4lessImEELb1EEENS_9allocatorIS3_EEE25__emplace_unique_key_argsImJRKNS_21piecewise_construct_tENS_5tupleIJRKmEEENSF_IJEEEEEENS_4pairINS_15__tree_iteratorIS3_PNS_11__tree_nodeIS3_S2_EElEEbEERKT_DpOT0_
000000010051c468 T __ZNSt3__16__treeINS_12__value_typeImPvEENS_19__map_value_compareImS3_NS_4lessImEELb1EEENS_9allocatorIS3_EEE4findImEENS_15__tree_iteratorIS3_PNS_11__tree_nodeIS3_S2_EElEERKT_
000000010051c7ac T __ZNSt3__16__treeINS_12__value_typeImPvEENS_19__map_value_compareImS3_NS_4lessImEELb1EEENS_9allocatorIS3_EEE5eraseENS_21__tree_const_iteratorIS3_PNS_11__tree_nodeIS3_S2_EElEE
000000010051b5f8 T __ZNSt3__16__treeINS_12__value_typeImPvEENS_19__map_value_compareImS3_NS_4lessImEELb1EEENS_9allocatorIS3_EEE7destroyEPNS_11__tree_nodeIS3_S2_EE
00000001002dd900 T __ZNSt3__16__treeINS_12__value_typeIxN2cu17CuResFileDownload20IOSBGDownloadFileGapEEENS_19__map_value_compareIxS5_NS_4lessIxEELb1EEENS_9allocatorIS5_EEE12__find_equalIxEERPNS_16__tree_node_baseIPvEERPNS_15__tree_end_nodeISH_EERKT_
00000001002ddb58 T __ZNSt3__16__treeINS_12__value_typeIxN2cu17CuResFileDownload20IOSBGDownloadFileGapEEENS_19__map_value_compareIxS5_NS_4lessIxEELb1EEENS_9allocatorIS5_EEE16__construct_nodeIJRKNS_21piecewise_construct_tENS_5tupleIJRKxEEENSH_IJEEEEEENS_10unique_ptrINS_11__tree_nodeIS5_PvEENS_22__tree_node_destructorINSA_ISP_EEEEEEDpOT_
00000001002de2c0 T __ZNSt3__16__treeINS_12__value_typeIxN2cu17CuResFileDownload20IOSBGDownloadFileGapEEENS_19__map_value_compareIxS5_NS_4lessIxEELb1EEENS_9allocatorIS5_EEE16__insert_node_atEPNS_15__tree_end_nodeIPNS_16__tree_node_baseIPvEEEERSH_SH_
00000001002dd4ec T __ZNSt3__16__treeINS_12__value_typeIxN2cu17CuResFileDownload20IOSBGDownloadFileGapEEENS_19__map_value_compareIxS5_NS_4lessIxEELb1EEENS_9allocatorIS5_EEE25__emplace_unique_key_argsIxJRKNS_21piecewise_construct_tENS_5tupleIJRKxEEENSH_IJEEEEEENS_4pairINS_15__tree_iteratorIS5_PNS_11__tree_nodeIS5_PvEElEEbEERKT_DpOT0_
00000001002d0de4 T __ZNSt3__16__treeINS_12__value_typeIxN2cu17CuResFileDownload20IOSBGDownloadFileGapEEENS_19__map_value_compareIxS5_NS_4lessIxEELb1EEENS_9allocatorIS5_EEE7destroyEPNS_11__tree_nodeIS5_PvEE
00000001003d4114 T __ZNSt3__16__treeINS_12__value_typeIxN4fund12mtshared_ptrI5CTaskNS2_6memory15_shared_baseptrIS4_Lb0ELb1EEEEEEENS_19__map_value_compareIxS9_NS_4lessIxEELb1EEENS_9allocatorIS9_EEE12__find_equalIxEERPNS_16__tree_node_baseIPvEERPNS_15__tree_end_nodeISL_EERKT_
00000001003d38b8 T __ZNSt3__16__treeINS_12__value_typeIxN4fund12mtshared_ptrI5CTaskNS2_6memory15_shared_baseptrIS4_Lb0ELb1EEEEEEENS_19__map_value_compareIxS9_NS_4lessIxEELb1EEENS_9allocatorIS9_EEE13__lower_boundIxEENS_15__tree_iteratorIS9_PNS_11__tree_nodeIS9_PvEElEERKT_SM_PNS_15__tree_end_nodeIPNS_16__tree_node_baseISK_EEEE
00000001003d436c T __ZNSt3__16__treeINS_12__value_typeIxN4fund12mtshared_ptrI5CTaskNS2_6memory15_shared_baseptrIS4_Lb0ELb1EEEEEEENS_19__map_value_compareIxS9_NS_4lessIxEELb1EEENS_9allocatorIS9_EEE16__construct_nodeIJNS_4pairIxS8_EEEEENS_10unique_ptrINS_11__tree_nodeIS9_PvEENS_22__tree_node_destructorINSE_ISN_EEEEEEDpOT_
00000001003d4a1c T __ZNSt3__16__treeINS_12__value_typeIxN4fund12mtshared_ptrI5CTaskNS2_6memory15_shared_baseptrIS4_Lb0ELb1EEEEEEENS_19__map_value_compareIxS9_NS_4lessIxEELb1EEENS_9allocatorIS9_EEE16__insert_node_atEPNS_15__tree_end_nodeIPNS_16__tree_node_baseIPvEEEERSL_SL_
00000001003d3d20 T __ZNSt3__16__treeINS_12__value_typeIxN4fund12mtshared_ptrI5CTaskNS2_6memory15_shared_baseptrIS4_Lb0ELb1EEEEEEENS_19__map_value_compareIxS9_NS_4lessIxEELb1EEENS_9allocatorIS9_EEE25__emplace_unique_key_argsIxJNS_4pairIxS8_EEEEENSI_INS_15__tree_iteratorIS9_PNS_11__tree_nodeIS9_PvEElEEbEERKT_DpOT0_
00000001003d3660 T __ZNSt3__16__treeINS_12__value_typeIxN4fund12mtshared_ptrI5CTaskNS2_6memory15_shared_baseptrIS4_Lb0ELb1EEEEEEENS_19__map_value_compareIxS9_NS_4lessIxEELb1EEENS_9allocatorIS9_EEE4findIxEENS_15__tree_iteratorIS9_PNS_11__tree_nodeIS9_PvEElEERKT_
0000000100415a20 T __ZNSt3__16__treeINS_12__value_typeIxN4fund12mtshared_ptrI5CTaskNS2_6memory15_shared_baseptrIS4_Lb0ELb1EEEEEEENS_19__map_value_compareIxS9_NS_4lessIxEELb1EEENS_9allocatorIS9_EEE5clearEv
00000001003d39a4 T __ZNSt3__16__treeINS_12__value_typeIxN4fund12mtshared_ptrI5CTaskNS2_6memory15_shared_baseptrIS4_Lb0ELb1EEEEEEENS_19__map_value_compareIxS9_NS_4lessIxEELb1EEENS_9allocatorIS9_EEE5eraseENS_21__tree_const_iteratorIS9_PNS_11__tree_nodeIS9_PvEElEE
00000001003d3518 T __ZNSt3__16__treeINS_12__value_typeIxN4fund12mtshared_ptrI5CTaskNS2_6memory15_shared_baseptrIS4_Lb0ELb1EEEEEEENS_19__map_value_compareIxS9_NS_4lessIxEELb1EEENS_9allocatorIS9_EEE7destroyEPNS_11__tree_nodeIS9_PvEE
000000010029c0a0 T __ZNSt3__16__treeINS_12__value_typeIxNS_12basic_stringIcNS_11char_traitsIcEENS_9allocatorIcEEEEEENS_19__map_value_compareIxS8_NS_4lessIxEELb1EEENS5_IS8_EEE12__find_equalIxEERPNS_16__tree_node_baseIPvEERPNS_15__tree_end_nodeISJ_EERKT_
000000010029bbc0 T __ZNSt3__16__treeINS_12__value_typeIxNS_12basic_stringIcNS_11char_traitsIcEENS_9allocatorIcEEEEEENS_19__map_value_compareIxS8_NS_4lessIxEELb1EEENS5_IS8_EEE13__lower_boundIxEENS_15__tree_iteratorIS8_PNS_11__tree_nodeIS8_PvEElEERKT_SK_PNS_15__tree_end_nodeIPNS_16__tree_node_baseISI_EEEE
000000010029c2f8 T __ZNSt3__16__treeINS_12__value_typeIxNS_12basic_stringIcNS_11char_traitsIcEENS_9allocatorIcEEEEEENS_19__map_value_compareIxS8_NS_4lessIxEELb1EEENS5_IS8_EEE16__construct_nodeIJNS_4pairIxS7_EEEEENS_10unique_ptrINS_11__tree_nodeIS8_PvEENS_22__tree_node_destructorINS5_ISL_EEEEEEDpOT_
000000010029c8cc T __ZNSt3__16__treeINS_12__value_typeIxNS_12basic_stringIcNS_11char_traitsIcEENS_9allocatorIcEEEEEENS_19__map_value_compareIxS8_NS_4lessIxEELb1EEENS5_IS8_EEE16__insert_node_atEPNS_15__tree_end_nodeIPNS_16__tree_node_baseIPvEEEERSJ_SJ_
000000010029bcac T __ZNSt3__16__treeINS_12__value_typeIxNS_12basic_stringIcNS_11char_traitsIcEENS_9allocatorIcEEEEEENS_19__map_value_compareIxS8_NS_4lessIxEELb1EEENS5_IS8_EEE25__emplace_unique_key_argsIxJNS_4pairIxS7_EEEEENSG_INS_15__tree_iteratorIS8_PNS_11__tree_nodeIS8_PvEElEEbEERKT_DpOT0_
000000010029b968 T __ZNSt3__16__treeINS_12__value_typeIxNS_12basic_stringIcNS_11char_traitsIcEENS_9allocatorIcEEEEEENS_19__map_value_compareIxS8_NS_4lessIxEELb1EEENS5_IS8_EEE4findIxEENS_15__tree_iteratorIS8_PNS_11__tree_nodeIS8_PvEElEERKT_
000000010029b874 T __ZNSt3__16__treeINS_12__value_typeIxNS_12basic_stringIcNS_11char_traitsIcEENS_9allocatorIcEEEEEENS_19__map_value_compareIxS8_NS_4lessIxEELb1EEENS5_IS8_EEE5clearEv
000000010029ca10 T __ZNSt3__16__treeINS_12__value_typeIxNS_12basic_stringIcNS_11char_traitsIcEENS_9allocatorIcEEEEEENS_19__map_value_compareIxS8_NS_4lessIxEELb1EEENS5_IS8_EEE5eraseENS_21__tree_const_iteratorIS8_PNS_11__tree_nodeIS8_PvEElEE
000000010029b768 T __ZNSt3__16__treeINS_12__value_typeIxNS_12basic_stringIcNS_11char_traitsIcEENS_9allocatorIcEEEEEENS_19__map_value_compareIxS8_NS_4lessIxEELb1EEENS5_IS8_EEE7destroyEPNS_11__tree_nodeIS8_PvEE
00000001003705d4 T __ZNSt3__16__treeINS_12__value_typeIxPN21version_update_action15task_attributeeEEENS_19__map_value_compareIxS5_NS_4lessIxEELb1EEENS_9allocatorIS5_EEE12__find_equalIxEERPNS_16__tree_node_baseIPvEERPNS_15__tree_end_nodeISH_EERKT_
00000001003700ec T __ZNSt3__16__treeINS_12__value_typeIxPN21version_update_action15task_attributeeEEENS_19__map_value_compareIxS5_NS_4lessIxEELb1EEENS_9allocatorIS5_EEE13__lower_boundIxEENS_15__tree_iteratorIS5_PNS_11__tree_nodeIS5_PvEElEERKT_SI_PNS_15__tree_end_nodeIPNS_16__tree_node_baseISG_EEEE
000000010037082c T __ZNSt3__16__treeINS_12__value_typeIxPN21version_update_action15task_attributeeEEENS_19__map_value_compareIxS5_NS_4lessIxEELb1EEENS_9allocatorIS5_EEE16__construct_nodeIJRKNS_21piecewise_construct_tENS_5tupleIJRKxEEENSH_IJEEEEEENS_10unique_ptrINS_11__tree_nodeIS5_PvEENS_22__tree_node_destructorINSA_ISP_EEEEEEDpOT_
0000000100370e04 T __ZNSt3__16__treeINS_12__value_typeIxPN21version_update_action15task_attributeeEEENS_19__map_value_compareIxS5_NS_4lessIxEELb1EEENS_9allocatorIS5_EEE16__insert_node_atEPNS_15__tree_end_nodeIPNS_16__tree_node_baseIPvEEEERSH_SH_
00000001003701d8 T __ZNSt3__16__treeINS_12__value_typeIxPN21version_update_action15task_attributeeEEENS_19__map_value_compareIxS5_NS_4lessIxEELb1EEENS_9allocatorIS5_EEE25__emplace_unique_key_argsIxJRKNS_21piecewise_construct_tENS_5tupleIJRKxEEENSH_IJEEEEEENS_4pairINS_15__tree_iteratorIS5_PNS_11__tree_nodeIS5_PvEElEEbEERKT_DpOT0_
000000010036fe94 T __ZNSt3__16__treeINS_12__value_typeIxPN21version_update_action15task_attributeeEEENS_19__map_value_compareIxS5_NS_4lessIxEELb1EEENS_9allocatorIS5_EEE4findIxEENS_15__tree_iteratorIS5_PNS_11__tree_nodeIS5_PvEElEERKT_
000000010032538c T __ZNSt3__16__treeINS_12__value_typeIxPN21version_update_action15task_attributeeEEENS_19__map_value_compareIxS5_NS_4lessIxEELb1EEENS_9allocatorIS5_EEE5clearEv
0000000100325480 T __ZNSt3__16__treeINS_12__value_typeIxPN21version_update_action15task_attributeeEEENS_19__map_value_compareIxS5_NS_4lessIxEELb1EEENS_9allocatorIS5_EEE7destroyEPNS_11__tree_nodeIS5_PvEE
00000001002771f8 T __ZNSt3__16__treeINS_12__value_typeIyN2cu21CPufferDownloadAction13InterTaskInfoEEENS_19__map_value_compareIyS5_NS_4lessIyEELb1EEENS_9allocatorIS5_EEE12__find_equalIyEERPNS_16__tree_node_baseIPvEERPNS_15__tree_end_nodeISH_EERKT_
0000000100276acc T __ZNSt3__16__treeINS_12__value_typeIyN2cu21CPufferDownloadAction13InterTaskInfoEEENS_19__map_value_compareIyS5_NS_4lessIyEELb1EEENS_9allocatorIS5_EEE13__lower_boundIyEENS_15__tree_iteratorIS5_PNS_11__tree_nodeIS5_PvEElEERKT_SI_PNS_15__tree_end_nodeIPNS_16__tree_node_baseISG_EEEE
0000000100277450 T __ZNSt3__16__treeINS_12__value_typeIyN2cu21CPufferDownloadAction13InterTaskInfoEEENS_19__map_value_compareIyS5_NS_4lessIyEELb1EEENS_9allocatorIS5_EEE16__construct_nodeIJNS_4pairIyS4_EEEEENS_10unique_ptrINS_11__tree_nodeIS5_PvEENS_22__tree_node_destructorINSA_ISJ_EEEEEEDpOT_
0000000100277994 T __ZNSt3__16__treeINS_12__value_typeIyN2cu21CPufferDownloadAction13InterTaskInfoEEENS_19__map_value_compareIyS5_NS_4lessIyEELb1EEENS_9allocatorIS5_EEE16__insert_node_atEPNS_15__tree_end_nodeIPNS_16__tree_node_baseIPvEEEERSH_SH_
0000000100276e1c T __ZNSt3__16__treeINS_12__value_typeIyN2cu21CPufferDownloadAction13InterTaskInfoEEENS_19__map_value_compareIyS5_NS_4lessIyEELb1EEENS_9allocatorIS5_EEE25__emplace_unique_key_argsIyJNS_4pairIyS4_EEEEENSE_INS_15__tree_iteratorIS5_PNS_11__tree_nodeIS5_PvEElEEbEERKT_DpOT0_
0000000100276874 T __ZNSt3__16__treeINS_12__value_typeIyN2cu21CPufferDownloadAction13InterTaskInfoEEENS_19__map_value_compareIyS5_NS_4lessIyEELb1EEENS_9allocatorIS5_EEE4findIyEENS_15__tree_iteratorIS5_PNS_11__tree_nodeIS5_PvEElEERKT_
0000000100276bb8 T __ZNSt3__16__treeINS_12__value_typeIyN2cu21CPufferDownloadAction13InterTaskInfoEEENS_19__map_value_compareIyS5_NS_4lessIyEELb1EEENS_9allocatorIS5_EEE5eraseENS_21__tree_const_iteratorIS5_PNS_11__tree_nodeIS5_PvEElEE
000000010027623c T __ZNSt3__16__treeINS_12__value_typeIyN2cu21CPufferDownloadAction13InterTaskInfoEEENS_19__map_value_compareIyS5_NS_4lessIyEELb1EEENS_9allocatorIS5_EEE7destroyEPNS_11__tree_nodeIS5_PvEE
00000001001d7774 T __ZNSt3__16__treeINS_12__value_typeIyN6pebble3rpc12RpcConnector10CobSessionEEENS_19__map_value_compareIyS6_NS_4lessIyEELb1EEENS_9allocatorIS6_EEE12__find_equalIyEERPNS_16__tree_node_baseIPvEERPNS_15__tree_end_nodeISI_EERKT_
00000001001db020 T __ZNSt3__16__treeINS_12__value_typeIyN6pebble3rpc12RpcConnector10CobSessionEEENS_19__map_value_compareIyS6_NS_4lessIyEELb1EEENS_9allocatorIS6_EEE13__lower_boundIyEENS_15__tree_iteratorIS6_PNS_11__tree_nodeIS6_PvEElEERKT_SJ_PNS_15__tree_end_nodeIPNS_16__tree_node_baseISH_EEEE
00000001001db10c T __ZNSt3__16__treeINS_12__value_typeIyN6pebble3rpc12RpcConnector10CobSessionEEENS_19__map_value_compareIyS6_NS_4lessIyEELb1EEENS_9allocatorIS6_EEE14__erase_uniqueIyEEmRKT_
00000001001d79cc T __ZNSt3__16__treeINS_12__value_typeIyN6pebble3rpc12RpcConnector10CobSessionEEENS_19__map_value_compareIyS6_NS_4lessIyEELb1EEENS_9allocatorIS6_EEE16__construct_nodeIJRKNS_21piecewise_construct_tENS_5tupleIJOyEEENSI_IJEEEEEENS_10unique_ptrINS_11__tree_nodeIS6_PvEENS_22__tree_node_destructorINSB_ISP_EEEEEEDpOT_
00000001001d8128 T __ZNSt3__16__treeINS_12__value_typeIyN6pebble3rpc12RpcConnector10CobSessionEEENS_19__map_value_compareIyS6_NS_4lessIyEELb1EEENS_9allocatorIS6_EEE16__insert_node_atEPNS_15__tree_end_nodeIPNS_16__tree_node_baseIPvEEEERSI_SI_
00000001001d7360 T __ZNSt3__16__treeINS_12__value_typeIyN6pebble3rpc12RpcConnector10CobSessionEEENS_19__map_value_compareIyS6_NS_4lessIyEELb1EEENS_9allocatorIS6_EEE25__emplace_unique_key_argsIyJRKNS_21piecewise_construct_tENS_5tupleIJOyEEENSI_IJEEEEEENS_4pairINS_15__tree_iteratorIS6_PNS_11__tree_nodeIS6_PvEElEEbEERKT_DpOT0_
00000001001dadc8 T __ZNSt3__16__treeINS_12__value_typeIyN6pebble3rpc12RpcConnector10CobSessionEEENS_19__map_value_compareIyS6_NS_4lessIyEELb1EEENS_9allocatorIS6_EEE4findIyEENS_15__tree_iteratorIS6_PNS_11__tree_nodeIS6_PvEElEERKT_
00000001001db228 T __ZNSt3__16__treeINS_12__value_typeIyN6pebble3rpc12RpcConnector10CobSessionEEENS_19__map_value_compareIyS6_NS_4lessIyEELb1EEENS_9allocatorIS6_EEE5eraseENS_21__tree_const_iteratorIS6_PNS_11__tree_nodeIS6_PvEElEE
00000001001db49c T __ZNSt3__16__treeINS_12__value_typeIyN6pebble3rpc12RpcConnector10CobSessionEEENS_19__map_value_compareIyS6_NS_4lessIyEELb1EEENS_9allocatorIS6_EEE5eraseENS_21__tree_const_iteratorIS6_PNS_11__tree_nodeIS6_PvEElEESJ_
00000001001ca6b8 T __ZNSt3__16__treeINS_12__value_typeIyN6pebble3rpc12RpcConnector10CobSessionEEENS_19__map_value_compareIyS6_NS_4lessIyEELb1EEENS_9allocatorIS6_EEE7destroyEPNS_11__tree_nodeIS6_PvEE
0000000100190d08 T __ZNSt3__16__treeINS_12__value_typeIyN6pebble3rpc14AddressService12QuerySessionEEENS_19__map_value_compareIyS6_NS_4lessIyEELb1EEENS_9allocatorIS6_EEE12__find_equalIyEERPNS_16__tree_node_baseIPvEERPNS_15__tree_end_nodeISI_EERKT_
0000000100191a4c T __ZNSt3__16__treeINS_12__value_typeIyN6pebble3rpc14AddressService12QuerySessionEEENS_19__map_value_compareIyS6_NS_4lessIyEELb1EEENS_9allocatorIS6_EEE13__lower_boundIyEENS_15__tree_iteratorIS6_PNS_11__tree_nodeIS6_PvEElEERKT_SJ_PNS_15__tree_end_nodeIPNS_16__tree_node_baseISH_EEEE
000000010019269c T __ZNSt3__16__treeINS_12__value_typeIyN6pebble3rpc14AddressService12QuerySessionEEENS_19__map_value_compareIyS6_NS_4lessIyEELb1EEENS_9allocatorIS6_EEE14__erase_uniqueIyEEmRKT_
0000000100191f4c T __ZNSt3__16__treeINS_12__value_typeIyN6pebble3rpc14AddressService12QuerySessionEEENS_19__map_value_compareIyS6_NS_4lessIyEELb1EEENS_9allocatorIS6_EEE16__construct_nodeIJRKNS_21piecewise_construct_tENS_5tupleIJOyEEENSI_IJEEEEEENS_10unique_ptrINS_11__tree_nodeIS6_PvEENS_22__tree_node_destructorINSB_ISP_EEEEEEDpOT_
0000000100190f60 T __ZNSt3__16__treeINS_12__value_typeIyN6pebble3rpc14AddressService12QuerySessionEEENS_19__map_value_compareIyS6_NS_4lessIyEELb1EEENS_9allocatorIS6_EEE16__construct_nodeIJRKNS_21piecewise_construct_tENS_5tupleIJRKyEEENSI_IJEEEEEENS_10unique_ptrINS_11__tree_nodeIS6_PvEENS_22__tree_node_destructorINSB_ISQ_EEEEEEDpOT_
00000001001916b0 T __ZNSt3__16__treeINS_12__value_typeIyN6pebble3rpc14AddressService12QuerySessionEEENS_19__map_value_compareIyS6_NS_4lessIyEELb1EEENS_9allocatorIS6_EEE16__insert_node_atEPNS_15__tree_end_nodeIPNS_16__tree_node_baseIPvEEEERSI_SI_
0000000100191b38 T __ZNSt3__16__treeINS_12__value_typeIyN6pebble3rpc14AddressService12QuerySessionEEENS_19__map_value_compareIyS6_NS_4lessIyEELb1EEENS_9allocatorIS6_EEE25__emplace_unique_key_argsIyJRKNS_21piecewise_construct_tENS_5tupleIJOyEEENSI_IJEEEEEENS_4pairINS_15__tree_iteratorIS6_PNS_11__tree_nodeIS6_PvEElEEbEERKT_DpOT0_
00000001001908f4 T __ZNSt3__16__treeINS_12__value_typeIyN6pebble3rpc14AddressService12QuerySessionEEENS_19__map_value_compareIyS6_NS_4lessIyEELb1EEENS_9allocatorIS6_EEE25__emplace_unique_key_argsIyJRKNS_21piecewise_construct_tENS_5tupleIJRKyEEENSI_IJEEEEEENS_4pairINS_15__tree_iteratorIS6_PNS_11__tree_nodeIS6_PvEElEEbEERKT_DpOT0_
00000001001917f4 T __ZNSt3__16__treeINS_12__value_typeIyN6pebble3rpc14AddressService12QuerySessionEEENS_19__map_value_compareIyS6_NS_4lessIyEELb1EEENS_9allocatorIS6_EEE4findIyEENS_15__tree_iteratorIS6_PNS_11__tree_nodeIS6_PvEElEERKT_
00000001001927b8 T __ZNSt3__16__treeINS_12__value_typeIyN6pebble3rpc14AddressService12QuerySessionEEENS_19__map_value_compareIyS6_NS_4lessIyEELb1EEENS_9allocatorIS6_EEE5eraseENS_21__tree_const_iteratorIS6_PNS_11__tree_nodeIS6_PvEElEE
0000000100193a58 T __ZNSt3__16__treeINS_12__value_typeIyN6pebble3rpc14AddressService12QuerySessionEEENS_19__map_value_compareIyS6_NS_4lessIyEELb1EEENS_9allocatorIS6_EEE5eraseENS_21__tree_const_iteratorIS6_PNS_11__tree_nodeIS6_PvEElEESJ_
00000001001853fc T __ZNSt3__16__treeINS_12__value_typeIyN6pebble3rpc14AddressService12QuerySessionEEENS_19__map_value_compareIyS6_NS_4lessIyEELb1EEENS_9allocatorIS6_EEE7destroyEPNS_11__tree_nodeIS6_PvEE
00000001001b87d8 T __ZNSt3__16__treeINS_12__value_typeIyN6pebble3rpc9transport9MsgBuffer7MessageEEENS_19__map_value_compareIyS7_NS_4lessIyEELb1EEENS_9allocatorIS7_EEE12__find_equalIyEERPNS_16__tree_node_baseIPvEERPNS_15__tree_end_nodeISJ_EERKT_
00000001001bb39c T __ZNSt3__16__treeINS_12__value_typeIyN6pebble3rpc9transport9MsgBuffer7MessageEEENS_19__map_value_compareIyS7_NS_4lessIyEELb1EEENS_9allocatorIS7_EEE13__lower_boundIyEENS_15__tree_iteratorIS7_PNS_11__tree_nodeIS7_PvEElEERKT_SK_PNS_15__tree_end_nodeIPNS_16__tree_node_baseISI_EEEE
00000001001b8a30 T __ZNSt3__16__treeINS_12__value_typeIyN6pebble3rpc9transport9MsgBuffer7MessageEEENS_19__map_value_compareIyS7_NS_4lessIyEELb1EEENS_9allocatorIS7_EEE16__construct_nodeIJRKNS_21piecewise_construct_tENS_5tupleIJOyEEENSJ_IJEEEEEENS_10unique_ptrINS_11__tree_nodeIS7_PvEENS_22__tree_node_destructorINSC_ISQ_EEEEEEDpOT_
00000001001b9180 T __ZNSt3__16__treeINS_12__value_typeIyN6pebble3rpc9transport9MsgBuffer7MessageEEENS_19__map_value_compareIyS7_NS_4lessIyEELb1EEENS_9allocatorIS7_EEE16__insert_node_atEPNS_15__tree_end_nodeIPNS_16__tree_node_baseIPvEEEERSJ_SJ_
00000001001b83c4 T __ZNSt3__16__treeINS_12__value_typeIyN6pebble3rpc9transport9MsgBuffer7MessageEEENS_19__map_value_compareIyS7_NS_4lessIyEELb1EEENS_9allocatorIS7_EEE25__emplace_unique_key_argsIyJRKNS_21piecewise_construct_tENS_5tupleIJOyEEENSJ_IJEEEEEENS_4pairINS_15__tree_iteratorIS7_PNS_11__tree_nodeIS7_PvEElEEbEERKT_DpOT0_
00000001001bb144 T __ZNSt3__16__treeINS_12__value_typeIyN6pebble3rpc9transport9MsgBuffer7MessageEEENS_19__map_value_compareIyS7_NS_4lessIyEELb1EEENS_9allocatorIS7_EEE4findIyEENS_15__tree_iteratorIS7_PNS_11__tree_nodeIS7_PvEElEERKT_
00000001001baed0 T __ZNSt3__16__treeINS_12__value_typeIyN6pebble3rpc9transport9MsgBuffer7MessageEEENS_19__map_value_compareIyS7_NS_4lessIyEELb1EEENS_9allocatorIS7_EEE5eraseENS_21__tree_const_iteratorIS7_PNS_11__tree_nodeIS7_PvEElEE
00000001001bade4 T __ZNSt3__16__treeINS_12__value_typeIyN6pebble3rpc9transport9MsgBuffer7MessageEEENS_19__map_value_compareIyS7_NS_4lessIyEELb1EEENS_9allocatorIS7_EEE5eraseENS_21__tree_const_iteratorIS7_PNS_11__tree_nodeIS7_PvEElEESK_
000000010018701c T __ZNSt3__16__treeINS_12__value_typeIyN6pebble3rpc9transport9MsgBuffer7MessageEEENS_19__map_value_compareIyS7_NS_4lessIyEELb1EEENS_9allocatorIS7_EEE7destroyEPNS_11__tree_nodeIS7_PvEE
00000001002d2dac T __ZNSt3__16__treeINS_12basic_stringIcNS_11char_traitsIcEENS_9allocatorIcEEEENS_4lessIS6_EENS4_IS6_EEE12__find_equalIS6_EERPNS_16__tree_node_baseIPvEERPNS_15__tree_end_nodeISF_EERKT_
00000001002d5100 T __ZNSt3__16__treeINS_12basic_stringIcNS_11char_traitsIcEENS_9allocatorIcEEEENS_4lessIS6_EENS4_IS6_EEE16__construct_nodeIJRKS6_EEENS_10unique_ptrINS_11__tree_nodeIS6_PvEENS_22__tree_node_destructorINS4_ISH_EEEEEEDpOT_
00000001002d3774 T __ZNSt3__16__treeINS_12basic_stringIcNS_11char_traitsIcEENS_9allocatorIcEEEENS_4lessIS6_EENS4_IS6_EEE16__construct_nodeIJS6_EEENS_10unique_ptrINS_11__tree_nodeIS6_PvEENS_22__tree_node_destructorINS4_ISF_EEEEEEDpOT_
00000001002d3d18 T __ZNSt3__16__treeINS_12basic_stringIcNS_11char_traitsIcEENS_9allocatorIcEEEENS_4lessIS6_EENS4_IS6_EEE16__insert_node_atEPNS_15__tree_end_nodeIPNS_16__tree_node_baseIPvEEEERSF_SF_
00000001002d4d0c T __ZNSt3__16__treeINS_12basic_stringIcNS_11char_traitsIcEENS_9allocatorIcEEEENS_4lessIS6_EENS4_IS6_EEE25__emplace_unique_key_argsIS6_JRKS6_EEENS_4pairINS_15__tree_iteratorIS6_PNS_11__tree_nodeIS6_PvEElEEbEERKT_DpOT0_
00000001002d29b8 T __ZNSt3__16__treeINS_12basic_stringIcNS_11char_traitsIcEENS_9allocatorIcEEEENS_4lessIS6_EENS4_IS6_EEE25__emplace_unique_key_argsIS6_JS6_EEENS_4pairINS_15__tree_iteratorIS6_PNS_11__tree_nodeIS6_PvEElEEbEERKT_DpOT0_
00000001002ca32c T __ZNSt3__16__treeINS_12basic_stringIcNS_11char_traitsIcEENS_9allocatorIcEEEENS_4lessIS6_EENS4_IS6_EEE7destroyEPNS_11__tree_nodeIS6_PvEE
0000000100310764 T __ZNSt3__16__treeIjNS_4lessIjEENS_9allocatorIjEEE12__find_equalIjEERPNS_16__tree_node_baseIPvEERPNS_15__tree_end_nodeISA_EERKT_
000000010031098c T __ZNSt3__16__treeIjNS_4lessIjEENS_9allocatorIjEEE16__construct_nodeIJjEEENS_10unique_ptrINS_11__tree_nodeIjPvEENS_22__tree_node_destructorINS3_ISA_EEEEEEDpOT_
0000000100310e74 T __ZNSt3__16__treeIjNS_4lessIjEENS_9allocatorIjEEE16__insert_node_atEPNS_15__tree_end_nodeIPNS_16__tree_node_baseIPvEEEERSA_SA_
0000000100310388 T __ZNSt3__16__treeIjNS_4lessIjEENS_9allocatorIjEEE25__emplace_unique_key_argsIjJjEEENS_4pairINS_15__tree_iteratorIjPNS_11__tree_nodeIjPvEElEEbEERKT_DpOT0_
000000010031122c T __ZNSt3__16__treeIjNS_4lessIjEENS_9allocatorIjEEE7destroyEPNS_11__tree_nodeIjPvEE
000000010032450c T __ZNSt3__16__treeIxNS_4lessIxEENS_9allocatorIxEEE12__find_equalIxEERPNS_16__tree_node_baseIPvEERPNS_15__tree_end_nodeISA_EERKT_
0000000100371644 T __ZNSt3__16__treeIxNS_4lessIxEENS_9allocatorIxEEE13__lower_boundIxEENS_15__tree_iteratorIxPNS_11__tree_nodeIxPvEElEERKT_SB_PNS_15__tree_end_nodeIPNS_16__tree_node_baseIS9_EEEE
0000000100371084 T __ZNSt3__16__treeIxNS_4lessIxEENS_9allocatorIxEEE14__erase_uniqueIxEEmRKT_
0000000100324734 T __ZNSt3__16__treeIxNS_4lessIxEENS_9allocatorIxEEE16__construct_nodeIJRKxEEENS_10unique_ptrINS_11__tree_nodeIxPvEENS_22__tree_node_destructorINS3_ISC_EEEEEEDpOT_
0000000100324c24 T __ZNSt3__16__treeIxNS_4lessIxEENS_9allocatorIxEEE16__insert_node_atEPNS_15__tree_end_nodeIPNS_16__tree_node_baseIPvEEEERSA_SA_
0000000100324130 T __ZNSt3__16__treeIxNS_4lessIxEENS_9allocatorIxEEE25__emplace_unique_key_argsIxJRKxEEENS_4pairINS_15__tree_iteratorIxPNS_11__tree_nodeIxPvEElEEbEERKT_DpOT0_
00000001003711a0 T __ZNSt3__16__treeIxNS_4lessIxEENS_9allocatorIxEEE4findIxEENS_15__tree_iteratorIxPNS_11__tree_nodeIxPvEElEERKT_
00000001003713e0 T __ZNSt3__16__treeIxNS_4lessIxEENS_9allocatorIxEEE5eraseENS_21__tree_const_iteratorIxPNS_11__tree_nodeIxPvEElEE
000000010036f318 T __ZNSt3__16__treeIxNS_4lessIxEENS_9allocatorIxEEE7destroyEPNS_11__tree_nodeIxPvEE
000000010044f0c0 T __ZNSt3__16__treeIyNS_4lessIyEENS_9allocatorIyEEE12__find_equalIyEERPNS_16__tree_node_baseIPvEERPNS_15__tree_end_nodeISA_EERKT_
000000010044f2e8 T __ZNSt3__16__treeIyNS_4lessIyEENS_9allocatorIyEEE16__construct_nodeIJRKyEEENS_10unique_ptrINS_11__tree_nodeIyPvEENS_22__tree_node_destructorINS3_ISC_EEEEEEDpOT_
000000010044f7d8 T __ZNSt3__16__treeIyNS_4lessIyEENS_9allocatorIyEEE16__insert_node_atEPNS_15__tree_end_nodeIPNS_16__tree_node_baseIPvEEEERSA_SA_
000000010044ece4 T __ZNSt3__16__treeIyNS_4lessIyEENS_9allocatorIyEEE25__emplace_unique_key_argsIyJRKyEEENS_4pairINS_15__tree_iteratorIyPNS_11__tree_nodeIyPvEElEEbEERKT_DpOT0_
0000000100451838 T __ZNSt3__16__treeIyNS_4lessIyEENS_9allocatorIyEEE5clearEv
0000000100450414 T __ZNSt3__16__treeIyNS_4lessIyEENS_9allocatorIyEEE7destroyEPNS_11__tree_nodeIyPvEE
                 U __ZNSt3__16chrono12steady_clock3nowEv
                 U __ZNSt3__16localeC1ERKS0_
                 U __ZNSt3__16localeC1Ev
                 U __ZNSt3__16localeD1Ev
00000001003f7128 T __ZNSt3__16removeINS_11__wrap_iterIPP12HttpDownloadEES3_EET_S6_S6_RKT0_
00000001001d5028 T __ZNSt3__16uniqueINS_11__wrap_iterIPNS_12basic_stringIcNS_11char_traitsIcEENS_9allocatorIcEEEEEENS_10__equal_toIS7_S7_EEEET_SC_SC_T0_
00000001000c29d4 T __ZNSt3__16vectorI15_tagGcpDataInfoNS_9allocatorIS1_EEE21__push_back_slow_pathIRKS1_EEvOT_
00000001000c2da0 T __ZNSt3__16vectorI15_tagGcpDataInfoNS_9allocatorIS1_EEE26__swap_out_circular_bufferERNS_14__split_bufferIS1_RS3_EE
000000010033dadc T __ZNSt3__16vectorI17ifs_listfile_itemNS_9allocatorIS1_EEE21__push_back_slow_pathIRKS1_EEvOT_
000000010033df84 T __ZNSt3__16vectorI17ifs_listfile_itemNS_9allocatorIS1_EEE26__swap_out_circular_bufferERNS_14__split_bufferIS1_RS3_EE
0000000100235b44 T __ZNSt3__16vectorIN2cu14IFSPackageInfoENS_9allocatorIS2_EEE21__push_back_slow_pathIS2_EEvOT_
0000000100236174 T __ZNSt3__16vectorIN2cu14IFSPackageInfoENS_9allocatorIS2_EEE26__swap_out_circular_bufferERNS_14__split_bufferIS2_RS4_EE
00000001002da6a4 T __ZNSt3__16vectorIN2cu17CuResFileDownload12CuResFileGapENS_9allocatorIS3_EEE21__push_back_slow_pathIRKS3_EEvOT_
00000001002da9ac T __ZNSt3__16vectorIN2cu17CuResFileDownload12CuResFileGapENS_9allocatorIS3_EEE26__swap_out_circular_bufferERNS_14__split_bufferIS3_RS5_EE
00000001002dc648 T __ZNSt3__16vectorIN2cu17CuResFileDownload20IOSBGDownloadFileGapENS_9allocatorIS3_EEE21__push_back_slow_pathIRKS3_EEvOT_
00000001002dc9f4 T __ZNSt3__16vectorIN2cu17CuResFileDownload20IOSBGDownloadFileGapENS_9allocatorIS3_EEE26__swap_out_circular_bufferERNS_14__split_bufferIS3_RS5_EE
00000001002295f4 T __ZNSt3__16vectorIN2cu19cu_ifspackageconfig20IFSPackageConfigInfoENS_9allocatorIS3_EEE21__push_back_slow_pathIRKS3_EEvOT_
0000000100229a88 T __ZNSt3__16vectorIN2cu19cu_ifspackageconfig20IFSPackageConfigInfoENS_9allocatorIS3_EEE26__swap_out_circular_bufferERNS_14__split_bufferIS3_RS5_EE
0000000100277ad8 T __ZNSt3__16vectorIN2cu21CPufferDownloadAction11DownTaskMsgENS_9allocatorIS3_EEE21__push_back_slow_pathIRKS3_EEvOT_
0000000100277dec T __ZNSt3__16vectorIN2cu21CPufferDownloadAction11DownTaskMsgENS_9allocatorIS3_EEE26__swap_out_circular_bufferERNS_14__split_bufferIS3_RS5_EE
00000001002348f0 T __ZNSt3__16vectorIN2cu9file_infoENS_9allocatorIS2_EEE18__construct_at_endEm
0000000100234b28 T __ZNSt3__16vectorIN2cu9file_infoENS_9allocatorIS2_EEE26__swap_out_circular_bufferERNS_14__split_bufferIS2_RS4_EE
000000010022ed08 T __ZNSt3__16vectorIN2cu9file_infoENS_9allocatorIS2_EEE6resizeEm
0000000100234638 T __ZNSt3__16vectorIN2cu9file_infoENS_9allocatorIS2_EEE8__appendEm
00000001000f9c64 T __ZNSt3__16vectorIN5ABase13ANetworkStateENS_9allocatorIS2_EEE10deallocateEv
00000001000f9b64 T __ZNSt3__16vectorIN5ABase13ANetworkStateENS_9allocatorIS2_EEE18__construct_at_endIPS2_EENS_9enable_ifIXsr21__is_forward_iteratorIT_EE5valueEvE4typeES9_S9_m
00000001000fe49c T __ZNSt3__16vectorIN5ABase13ANetworkStateENS_9allocatorIS2_EEE21__push_back_slow_pathIRKS2_EEvOT_
00000001000fe79c T __ZNSt3__16vectorIN5ABase13ANetworkStateENS_9allocatorIS2_EEE26__swap_out_circular_bufferERNS_14__split_bufferIS2_RS4_EE
00000001000f9628 T __ZNSt3__16vectorIN5ABase13ANetworkStateENS_9allocatorIS2_EEE6assignIPS2_EENS_9enable_ifIXaasr21__is_forward_iteratorIT_EE5valuesr16is_constructibleIS2_NS_15iterator_traitsIS9_E9referenceEEE5valueEvE4typeES9_S9_
00000001000f9f1c T __ZNSt3__16vectorIN5ABase13ANetworkStateENS_9allocatorIS2_EEE8allocateEm
00000001000f90b0 T __ZNSt3__16vectorIN6GCloud4Conn9Connector6ActionENS_9allocatorIS4_EEE10deallocateEv
00000001000f8fb0 T __ZNSt3__16vectorIN6GCloud4Conn9Connector6ActionENS_9allocatorIS4_EEE18__construct_at_endIPS4_EENS_9enable_ifIXsr21__is_forward_iteratorIT_EE5valueEvE4typeESB_SB_m
00000001000f7e20 T __ZNSt3__16vectorIN6GCloud4Conn9Connector6ActionENS_9allocatorIS4_EEE21__push_back_slow_pathIRKS4_EEvOT_
00000001000f8120 T __ZNSt3__16vectorIN6GCloud4Conn9Connector6ActionENS_9allocatorIS4_EEE26__swap_out_circular_bufferERNS_14__split_bufferIS4_RS6_EE
00000001000f8a74 T __ZNSt3__16vectorIN6GCloud4Conn9Connector6ActionENS_9allocatorIS4_EEE6assignIPS4_EENS_9enable_ifIXaasr21__is_forward_iteratorIT_EE5valuesr16is_constructibleIS4_NS_15iterator_traitsISB_E9referenceEEE5valueEvE4typeESB_SB_
00000001000f9368 T __ZNSt3__16vectorIN6GCloud4Conn9Connector6ActionENS_9allocatorIS4_EEE8allocateEm
00000001003d1248 T __ZNSt3__16vectorIN6apollo9tagipinfoENS_9allocatorIS2_EEE10deallocateEv
00000001003d10f0 T __ZNSt3__16vectorIN6apollo9tagipinfoENS_9allocatorIS2_EEE18__construct_at_endIPS2_EENS_9enable_ifIXsr21__is_forward_iteratorIT_EE5valueEvE4typeES9_S9_m
00000001003ce634 T __ZNSt3__16vectorIN6apollo9tagipinfoENS_9allocatorIS2_EEE21__push_back_slow_pathIRKS2_EEvOT_
00000001003ce9c0 T __ZNSt3__16vectorIN6apollo9tagipinfoENS_9allocatorIS2_EEE26__swap_out_circular_bufferERNS_14__split_bufferIS2_RS4_EE
00000001003d0bb8 T __ZNSt3__16vectorIN6apollo9tagipinfoENS_9allocatorIS2_EEE6assignIPS2_EENS_9enable_ifIXaasr21__is_forward_iteratorIT_EE5valuesr16is_constructibleIS2_NS_15iterator_traitsIS9_E9referenceEEE5valueEvE4typeES9_S9_
00000001003d150c T __ZNSt3__16vectorIN6apollo9tagipinfoENS_9allocatorIS2_EEE8allocateEm
00000001001d826c T __ZNSt3__16vectorIN6pebble3rpc12RpcConnector6LBInfoENS_9allocatorIS4_EEE21__push_back_slow_pathIRKS4_EEvOT_
00000001001d856c T __ZNSt3__16vectorIN6pebble3rpc12RpcConnector6LBInfoENS_9allocatorIS4_EEE26__swap_out_circular_bufferERNS_14__split_bufferIS4_RS6_EE
000000010018e120 T __ZNSt3__16vectorIN6pebble3rpc14AddressService12QueryRequestENS_9allocatorIS4_EEE21__push_back_slow_pathIRKS4_EEvOT_
000000010018e4f8 T __ZNSt3__16vectorIN6pebble3rpc14AddressService12QueryRequestENS_9allocatorIS4_EEE26__swap_out_circular_bufferERNS_14__split_bufferIS4_RS6_EE
0000000100192a2c T __ZNSt3__16vectorIN6pebble3rpc14AddressService12ResponseInfoENS_9allocatorIS4_EEE21__push_back_slow_pathIS4_EEvOT_
0000000100193068 T __ZNSt3__16vectorIN6pebble3rpc14AddressService12ResponseInfoENS_9allocatorIS4_EEE26__swap_out_circular_bufferERNS_14__split_bufferIS4_RS6_EE
000000010019eaa4 T __ZNSt3__16vectorIN8addr_svr11AddressInfoENS_9allocatorIS2_EEE18__construct_at_endEm
000000010019ec9c T __ZNSt3__16vectorIN8addr_svr11AddressInfoENS_9allocatorIS2_EEE26__swap_out_circular_bufferERNS_14__split_bufferIS2_RS4_EE
000000010019e474 T __ZNSt3__16vectorIN8addr_svr11AddressInfoENS_9allocatorIS2_EEE6resizeEm
000000010019e7f4 T __ZNSt3__16vectorIN8addr_svr11AddressInfoENS_9allocatorIS2_EEE8__appendEm
000000010018da28 T __ZNSt3__16vectorINS_12basic_stringIcNS_11char_traitsIcEENS_9allocatorIcEEEENS4_IS6_EEE10deallocateEv
000000010019650c T __ZNSt3__16vectorINS_12basic_stringIcNS_11char_traitsIcEENS_9allocatorIcEEEENS4_IS6_EEE12__move_rangeEPS6_S9_S9_
00000001003ee968 T __ZNSt3__16vectorINS_12basic_stringIcNS_11char_traitsIcEENS_9allocatorIcEEEENS4_IS6_EEE13__move_assignERS8_NS_17integral_constantIbLb1EEE
000000010036dd1c T __ZNSt3__16vectorINS_12basic_stringIcNS_11char_traitsIcEENS_9allocatorIcEEEENS4_IS6_EEE18__construct_at_endEm
0000000100197a74 T __ZNSt3__16vectorINS_12basic_stringIcNS_11char_traitsIcEENS_9allocatorIcEEEENS4_IS6_EEE18__construct_at_endINS_11__wrap_iterIPS6_EEEENS_9enable_ifIXsr21__is_forward_iteratorIT_EE5valueEvE4typeESE_SE_m
000000010018cc8c T __ZNSt3__16vectorINS_12basic_stringIcNS_11char_traitsIcEENS_9allocatorIcEEEENS4_IS6_EEE18__construct_at_endIPS6_EENS_9enable_ifIXsr21__is_forward_iteratorIT_EE5valueEvE4typeESC_SC_m
00000001002f4e74 T __ZNSt3__16vectorINS_12basic_stringIcNS_11char_traitsIcEENS_9allocatorIcEEEENS4_IS6_EEE21__push_back_slow_pathIRKS6_EEvOT_
0000000100339f38 T __ZNSt3__16vectorINS_12basic_stringIcNS_11char_traitsIcEENS_9allocatorIcEEEENS4_IS6_EEE21__push_back_slow_pathIS6_EEvOT_
000000010033a294 T __ZNSt3__16vectorINS_12basic_stringIcNS_11char_traitsIcEENS_9allocatorIcEEEENS4_IS6_EEE26__swap_out_circular_bufferERNS_14__split_bufferIS6_RS7_EE
0000000100197194 T __ZNSt3__16vectorINS_12basic_stringIcNS_11char_traitsIcEENS_9allocatorIcEEEENS4_IS6_EEE26__swap_out_circular_bufferERNS_14__split_bufferIS6_RS7_EEPS6_
00000001001c2924 T __ZNSt3__16vectorINS_12basic_stringIcNS_11char_traitsIcEENS_9allocatorIcEEEENS4_IS6_EEE5eraseENS_11__wrap_iterIPKS6_EESC_
000000010018d4cc T __ZNSt3__16vectorINS_12basic_stringIcNS_11char_traitsIcEENS_9allocatorIcEEEENS4_IS6_EEE6assignIPS6_EENS_9enable_ifIXaasr21__is_forward_iteratorIT_EE5valuesr16is_constructibleIS6_NS_15iterator_traitsISC_E9referenceEEE5valueEvE4typeESC_SC_
0000000100182d6c T __ZNSt3__16vectorINS_12basic_stringIcNS_11char_traitsIcEENS_9allocatorIcEEEENS4_IS6_EEE6insertENS_11__wrap_iterIPKS6_EEOS6_
0000000100183c4c T __ZNSt3__16vectorINS_12basic_stringIcNS_11char_traitsIcEENS_9allocatorIcEEEENS4_IS6_EEE6insertINS_11__wrap_iterIPS6_EEEENS_9enable_ifIXaasr21__is_forward_iteratorIT_EE5valuesr16is_constructibleIS6_NS_15iterator_traitsISE_E9referenceEEE5valueESC_E4typeENSA_IPKS6_EESE_SE_
000000010035a834 T __ZNSt3__16vectorINS_12basic_stringIcNS_11char_traitsIcEENS_9allocatorIcEEEENS4_IS6_EEE6resizeEm
0000000100140750 T __ZNSt3__16vectorINS_12basic_stringIcNS_11char_traitsIcEENS_9allocatorIcEEEENS4_IS6_EEE7reserveEm
000000010036da6c T __ZNSt3__16vectorINS_12basic_stringIcNS_11char_traitsIcEENS_9allocatorIcEEEENS4_IS6_EEE8__appendEm
000000010018c9bc T __ZNSt3__16vectorINS_12basic_stringIcNS_11char_traitsIcEENS_9allocatorIcEEEENS4_IS6_EEE8allocateEm
00000001003f804c T __ZNSt3__16vectorIP12HttpDownloadNS_9allocatorIS2_EEE21__push_back_slow_pathIRKS2_EEvOT_
00000001003f834c T __ZNSt3__16vectorIP12HttpDownloadNS_9allocatorIS2_EEE26__swap_out_circular_bufferERNS_14__split_bufferIS2_RS4_EE
00000001003eb6a0 T __ZNSt3__16vectorIP12HttpDownloadNS_9allocatorIS2_EEE5eraseENS_11__wrap_iterIPKS2_EES9_
000000010015fe58 T __ZNSt3__16vectorIP9TLISTNODENS_9allocatorIS2_EEE21__push_back_slow_pathIS2_EEvOT_
0000000100160158 T __ZNSt3__16vectorIP9TLISTNODENS_9allocatorIS2_EEE26__swap_out_circular_bufferERNS_14__split_bufferIS2_RS4_EE
00000001000c1d0c T __ZNSt3__16vectorIPN6GCloud13ITGcpObserverENS_9allocatorIS3_EEE21__push_back_slow_pathIRKS3_EEvOT_
00000001000c200c T __ZNSt3__16vectorIPN6GCloud13ITGcpObserverENS_9allocatorIS3_EEE26__swap_out_circular_bufferERNS_14__split_bufferIS3_RS5_EE
000000010016ebb8 T __ZNSt3__16vectorIPN6GCloud15IQRCodeObserverENS_9allocatorIS3_EEE21__push_back_slow_pathIRKS3_EEvOT_
000000010016eeb8 T __ZNSt3__16vectorIPN6GCloud15IQRCodeObserverENS_9allocatorIS3_EEE26__swap_out_circular_bufferERNS_14__split_bufferIS3_RS5_EE
00000001000b6758 T __ZNSt3__16vectorIPN6GCloud16IServiceObserverENS_9allocatorIS3_EEE18__construct_at_endIPS3_EENS_9enable_ifIXsr21__is_forward_iteratorIT_EE5valueEvE4typeESA_SA_m
00000001000cc508 T __ZNSt3__16vectorIPN6GCloud16IServiceObserverENS_9allocatorIS3_EEE21__push_back_slow_pathIRKS3_EEvOT_
00000001000cc808 T __ZNSt3__16vectorIPN6GCloud16IServiceObserverENS_9allocatorIS3_EEE26__swap_out_circular_bufferERNS_14__split_bufferIS3_RS5_EE
00000001000b6498 T __ZNSt3__16vectorIPN6GCloud16IServiceObserverENS_9allocatorIS3_EEE8allocateEm
00000001000fda08 T __ZNSt3__16vectorIPN6GCloud4Conn9Connector8SendItemENS_9allocatorIS5_EEE21__push_back_slow_pathIRKS5_EEvOT_
00000001000fdd08 T __ZNSt3__16vectorIPN6GCloud4Conn9Connector8SendItemENS_9allocatorIS5_EEE26__swap_out_circular_bufferERNS_14__split_bufferIS5_RS7_EE
000000010016a320 T __ZNSt3__16vectorIPN6apollo14cmn_udp_socketENS_9allocatorIS3_EEE21__push_back_slow_pathIRKS3_EEvOT_
000000010016a620 T __ZNSt3__16vectorIPN6apollo14cmn_udp_socketENS_9allocatorIS3_EEE26__swap_out_circular_bufferERNS_14__split_bufferIS3_RS5_EE
000000010021df70 T __ZNSt3__16vectorIcNS_9allocatorIcEEE18__construct_at_endEm
000000010021e13c T __ZNSt3__16vectorIcNS_9allocatorIcEEE26__swap_out_circular_bufferERNS_14__split_bufferIcRS2_EE
000000010021acfc T __ZNSt3__16vectorIcNS_9allocatorIcEEE6resizeEm
000000010021dce8 T __ZNSt3__16vectorIcNS_9allocatorIcEEE8__appendEm
0000000100318e00 T __ZNSt3__16vectorIhNS_9allocatorIhEEE18__construct_at_endEm
0000000100318f80 T __ZNSt3__16vectorIhNS_9allocatorIhEEE26__swap_out_circular_bufferERNS_14__split_bufferIhRS2_EE
0000000100314efc T __ZNSt3__16vectorIhNS_9allocatorIhEEE6resizeEm
0000000100318b78 T __ZNSt3__16vectorIhNS_9allocatorIhEEE8__appendEm
0000000100450c70 T __ZNSt3__16vectorIiNS_9allocatorIiEEE21__push_back_slow_pathIiEEvOT_
0000000100450f24 T __ZNSt3__16vectorIiNS_9allocatorIiEEE26__swap_out_circular_bufferERNS_14__split_bufferIiRS2_EE
000000010035a5d4 T __ZNSt3__16vectorIiNS_9allocatorIiEEE6resizeEmRKi
000000010036d5d8 T __ZNSt3__16vectorIiNS_9allocatorIiEEE8__appendEmRKi
00000001002d0f60 T __ZNSt3__16vectorIjNS_9allocatorIjEEE21__push_back_slow_pathIRKjEEvOT_
00000001002d1260 T __ZNSt3__16vectorIjNS_9allocatorIjEEE26__swap_out_circular_bufferERNS_14__split_bufferIjRS2_EE
00000001002d407c T __ZNSt3__16vectorIjNS_9allocatorIjEEE8allocateEm
00000001002d9154 T __ZNSt3__16vectorIxNS_9allocatorIxEEE21__push_back_slow_pathIRKxEEvOT_
00000001002d9454 T __ZNSt3__16vectorIxNS_9allocatorIxEEE26__swap_out_circular_bufferERNS_14__split_bufferIxRS2_EE
00000001001cea9c T __ZNSt3__17__sort3IRNS_6__lessINS_12basic_stringIcNS_11char_traitsIcEENS_9allocatorIcEEEES7_EEPS7_EEjT0_SB_SB_T_
00000001001d05fc T __ZNSt3__17__sort4IRNS_6__lessINS_12basic_stringIcNS_11char_traitsIcEENS_9allocatorIcEEEES7_EEPS7_EEjT0_SB_SB_SB_T_
00000001001d1680 T __ZNSt3__17__sort5IRNS_6__lessINS_12basic_stringIcNS_11char_traitsIcEENS_9allocatorIcEEEES7_EEPS7_EEjT0_SB_SB_SB_SB_T_
                 U __ZNSt3__17codecvtIcc11__mbstate_tE2idE
000000010012c4c4 T __ZNSt3__17getlineIcNS_11char_traitsIcEENS_9allocatorIcEEEERNS_13basic_istreamIT_T0_EES9_RNS_12basic_stringIS6_S7_T1_EES6_
                 U __ZNSt3__17num_getIcNS_19istreambuf_iteratorIcNS_11char_traitsIcEEEEE2idE
                 U __ZNSt3__17num_putIcNS_19ostreambuf_iteratorIcNS_11char_traitsIcEEEEE2idE
00000001001b7f58 T __ZNSt3__18functionIFN6GCloud6ResultEPKhiRKNS1_13RouteInfoBaseEEE4swapERS9_
00000001001b83b0 T __ZNSt3__18functionIFN6GCloud6ResultEPKhiRKNS1_13RouteInfoBaseEEE9__as_baseEPv
00000001001b56fc T __ZNSt3__18functionIFN6GCloud6ResultEPKhiRKNS1_13RouteInfoBaseEEEaSERKS9_
00000001001b6790 T __ZNSt3__18functionIFN6GCloud6ResultEPKhiRKNS1_13RouteInfoBaseEEEaSINS_6__bindIMNS1_13IConnectorOldEFiS4_iS7_EJRPSC_RKNS_12placeholders4__phILi1EEERKNSI_ILi2EEERKNSI_ILi3EEEEEEvEERS9_OT_
00000001001cb290 T __ZNSt3__18functionIFvbEE9__as_baseEPv
00000001001d5bbc T __ZNSt3__18functionIFviPN6pebble3rpc8protocol9TProtocolEEE4swapERS7_
00000001001d6014 T __ZNSt3__18functionIFviPN6pebble3rpc8protocol9TProtocolEEE9__as_baseEPv
00000001001c6e04 T __ZNSt3__18functionIFviPN6pebble3rpc8protocol9TProtocolEEEaSERKS7_
000000010018dd7c T __ZNSt3__18functionIFviPNS_6vectorINS_12basic_stringIcNS_11char_traitsIcEENS_9allocatorIcEEEENS5_IS7_EEEEEE4swapERSC_
00000001000c64cc T __ZNSt3__18functionIFviPNS_6vectorINS_12basic_stringIcNS_11char_traitsIcEENS_9allocatorIcEEEENS5_IS7_EEEEEE9__as_baseEPv
000000010017700c T __ZNSt3__18functionIFviPNS_6vectorINS_12basic_stringIcNS_11char_traitsIcEENS_9allocatorIcEEEENS5_IS7_EEEEEEaSERKSC_
000000010034a8bc T __ZNSt3__18functionIFviRN15version_service16ResVersionUpdateEEE9__as_baseEPv
0000000100284b5c T __ZNSt3__18functionIFviRN6puffer15PufferUpdateRspEEE9__as_baseEPv
00000001001caaf4 T __ZNSt3__18functionIFvvEE4swapERS2_
00000001001caf4c T __ZNSt3__18functionIFvvEE9__as_baseEPv
00000001001caa20 T __ZNSt3__18functionIFvvEEaSERKS2_
00000001001c6e9c T __ZNSt3__18functionIFvvEEaSINS_6__bindIMN6pebble3rpc9transport9MsgBufferEFvyEJRPS8_yEEEvEERS2_OT_
00000001001ba978 T __ZNSt3__18functionIFyvEE4swapERS2_
00000001001badd0 T __ZNSt3__18functionIFyvEE9__as_baseEPv
00000001001b6944 T __ZNSt3__18functionIFyvEEaSERKS2_
                 U __ZNSt3__18ios_base33__set_badbit_and_consider_rethrowEv
                 U __ZNSt3__18ios_base4initEPv
                 U __ZNSt3__18ios_base5clearEj
                 U __ZNSt3__18ios_base7failureD1Ev
                 U __ZNSt3__18ios_baseD2Ev
                 U __ZNSt3__19basic_iosIcNS_11char_traitsIcEEED2Ev
00000001000d5dfc T __ZNSt3__19remove_ifINS_16__deque_iteratorIN8cu_event15cu_wfmo_info_t_EPS3_RS3_PS4_lLl256EEEPFbS3_EEET_SA_SA_T0_
0000000100433594 T __ZNSt3__1lsINS_11char_traitsIcEEEERNS_13basic_ostreamIcT_EES6_PKc
00000001002ec57c T __ZNSt3__1lsIcNS_11char_traitsIcEENS_9allocatorIcEEEERNS_13basic_ostreamIT_T0_EES9_RKNS_12basic_stringIS6_S7_T1_EE
00000001001323b8 T __ZNSt3__1plIcNS_11char_traitsIcEENS_9allocatorIcEEEENS_12basic_stringIT_T0_T1_EEPKS6_RKS9_
00000001002b23bc T __ZNSt3__1plIcNS_11char_traitsIcEENS_9allocatorIcEEEENS_12basic_stringIT_T0_T1_EERKS9_PKS6_
00000001000de7f0 T __ZNSt3__1plIcNS_11char_traitsIcEENS_9allocatorIcEEEENS_12basic_stringIT_T0_T1_EERKS9_SB_
                 U __ZNSt8bad_castC1Ev
                 U __ZNSt8bad_castD1Ev
                 U __ZNSt8ios_base4InitC1Ev
                 U __ZNSt8ios_base4InitD1Ev
                 U __ZNSt9bad_allocC1Ev
                 U __ZNSt9bad_allocD1Ev
                 U __ZNSt9exceptionD2Ev
                 U __ZSt13set_terminatePFvvE
                 U __ZSt17__throw_bad_allocv
                 U __ZSt17current_exceptionv
                 U __ZSt17rethrow_exceptionSt13exception_ptr
                 U __ZSt18_Rb_tree_decrementPSt18_Rb_tree_node_base
                 U __ZSt18_Rb_tree_incrementPKSt18_Rb_tree_node_base
                 U __ZSt18_Rb_tree_incrementPSt18_Rb_tree_node_base
                 U __ZSt18uncaught_exceptionv
                 U __ZSt19__throw_logic_errorPKc
                 U __ZSt20__throw_length_errorPKc
                 U __ZSt28_Rb_tree_rebalance_for_erasePSt18_Rb_tree_node_baseRS_
                 U __ZSt29_Rb_tree_insert_and_rebalancebPSt18_Rb_tree_node_baseS0_RS_
                 U __ZSt4endlIcSt11char_traitsIcEERSt13basic_ostreamIT_T0_ES6_
                 U __ZSt7nothrow
                 U __ZSt9terminatev
                 U __ZStlsISt11char_traitsIcEERSt13basic_ostreamIcT_ES5_PKc
                 U __ZStlsISt11char_traitsIcEERSt13basic_ostreamIcT_ES5_c
                 U __ZStlsIcSt11char_traitsIcESaIcEERSt13basic_ostreamIT_T0_ES7_RKSbIS4_S5_T1_E
                 U __ZTINSt3__119__shared_weak_countE
                 U __ZTINSt3__18ios_base7failureE
                 U __ZTINSt3__18ios_baseE
                 U __ZTIPKc
                 U __ZTIPc
                 U __ZTIc
                 U __ZTId
                 U __ZTIe
                 U __ZTIf
                 U __ZTIh
                 U __ZTIi
                 U __ZTIj
                 U __ZTIl
                 U __ZTIm
                 U __ZTIs
                 U __ZTIt
                 U __ZTIx
                 U __ZTIy
                 U __ZTTNSt3__110istrstreamE
                 U __ZTVN10__cxxabiv117__class_type_infoE
                 U __ZTVN10__cxxabiv119__pointer_type_infoE
                 U __ZTVN10__cxxabiv120__si_class_type_infoE
                 U __ZTVN10__cxxabiv121__vmi_class_type_infoE
0000000105527a10 D __ZTVN5physx21PxJointRepXSerializerINS_12PxFixedJointEEE
0000000105527a60 D __ZTVN5physx21PxJointRepXSerializerINS_15PxDistanceJointEEE
0000000105527b50 D __ZTVN5physx21PxJointRepXSerializerINS_15PxRevoluteJointEEE
0000000105527b00 D __ZTVN5physx21PxJointRepXSerializerINS_16PxPrismaticJointEEE
0000000105527ba0 D __ZTVN5physx21PxJointRepXSerializerINS_16PxSphericalJointEEE
0000000105527ab0 D __ZTVN5physx21PxJointRepXSerializerINS_9PxD6JointEEE
000000010554e250 D __ZTVN5physx23PxVehicleRepXSerializerINS_16PxVehicleDrive4WEEE
000000010554e2f0 D __ZTVN5physx23PxVehicleRepXSerializerINS_16PxVehicleDriveNWEEE
000000010554e340 D __ZTVN5physx23PxVehicleRepXSerializerINS_16PxVehicleNoDriveEEE
000000010554e2a0 D __ZTVN5physx23PxVehicleRepXSerializerINS_18PxVehicleDriveTankEEE
0000000105527f20 D __ZTVN5physx24PxParticleRepXSerializerINS_15PxParticleFluidEEE
0000000105527ed0 D __ZTVN5physx24PxParticleRepXSerializerINS_16PxParticleSystemEEE
0000000105521210 D __ZTVN5physx5cloth9ClothImplINS0_7SwClothEEE
                 U __ZTVNSt3__110istrstreamE
                 U __ZTVNSt3__112bad_weak_ptrE
                 U __ZTVNSt3__112system_errorE
                 U __ZTVNSt3__114__shared_countE
                 U __ZTVNSt3__119__shared_weak_countE
                 U __ZTVNSt3__18ios_base7failureE
                 U __ZTVNSt3__18ios_baseE
                 U __ZTVNSt3__19basic_iosIcNS_11char_traitsIcEEEE
                 U __ZTVSt12length_error
                 U __ZTVSt12out_of_range
                 U __ZTVSt9exception
                 U __ZThn16_NSt3__114basic_iostreamIcNS_11char_traitsIcEEED0Ev
                 U __ZThn16_NSt3__114basic_iostreamIcNS_11char_traitsIcEEED1Ev
0000000101016a38 T __ZThn8_N5physx5cloth9ClothImplINS0_7SwClothEE10putToSleepEv
00000001010135e4 T __ZThn8_N5physx5cloth9ClothImplINS0_7SwClothEE10setDampingERKNS_6PxVec3E
0000000101013474 T __ZThn8_N5physx5cloth9ClothImplINS0_7SwClothEE10setGravityERKNS_6PxVec3E
000000010101487c T __ZThn8_N5physx5cloth9ClothImplINS0_7SwClothEE10setSpheresENS0_5RangeIKNS_6PxVec4EEEjj
0000000101014aac T __ZThn8_N5physx5cloth9ClothImplINS0_7SwClothEE11setCapsulesENS0_5RangeIKjEEjj
000000010101528c T __ZThn8_N5physx5cloth9ClothImplINS0_7SwClothEE11setConvexesENS0_5RangeIKjEEjj
0000000101015a04 T __ZThn8_N5physx5cloth9ClothImplINS0_7SwClothEE11setFrictionEf
0000000101013280 T __ZThn8_N5physx5cloth9ClothImplINS0_7SwClothEE11setRotationERKNS_6PxQuatE
0000000101016a5c T __ZThn8_N5physx5cloth9ClothImplINS0_7SwClothEE11setUserDataEPv
0000000101013324 T __ZThn8_N5physx5cloth9ClothImplINS0_7SwClothEE12clearInertiaEv
0000000101015940 T __ZThn8_N5physx5cloth9ClothImplINS0_7SwClothEE12setTrianglesENS0_5RangeIKNS_6PxVec3EEES7_j
00000001010157a0 T __ZThn8_N5physx5cloth9ClothImplINS0_7SwClothEE12setTrianglesENS0_5RangeIKNS_6PxVec3EEEjj
000000010101390c T __ZThn8_N5physx5cloth9ClothImplINS0_7SwClothEE13setLinearDragERKNS_6PxVec3E
0000000101013c34 T __ZThn8_N5physx5cloth9ClothImplINS0_7SwClothEE14setAngularDragERKNS_6PxVec3E
00000001010131d0 T __ZThn8_N5physx5cloth9ClothImplINS0_7SwClothEE14setTranslationERKNS_6PxVec3E
00000001010161e8 T __ZThn8_N5physx5cloth9ClothImplINS0_7SwClothEE15setWindVelocityENS_6PxVec3E
0000000101013ed8 T __ZThn8_N5physx5cloth9ClothImplINS0_7SwClothEE16setLinearInertiaERKNS_6PxVec3E
00000001010167b8 T __ZThn8_N5physx5cloth9ClothImplINS0_7SwClothEE16setRestPositionsENS0_5RangeIKNS_6PxVec4EEE
0000000101013fc4 T __ZThn8_N5physx5cloth9ClothImplINS0_7SwClothEE17setAngularInertiaERKNS_6PxVec3E
000000010101694c T __ZThn8_N5physx5cloth9ClothImplINS0_7SwClothEE17setSleepThresholdEf
0000000101016174 T __ZThn8_N5physx5cloth9ClothImplINS0_7SwClothEE18clearInterpolationEv
00000001010162dc T __ZThn8_N5physx5cloth9ClothImplINS0_7SwClothEE18setDragCoefficientEf
0000000101016414 T __ZThn8_N5physx5cloth9ClothImplINS0_7SwClothEE18setLiftCoefficientEf
00000001010169cc T __ZThn8_N5physx5cloth9ClothImplINS0_7SwClothEE18setSleepAfterCountEj
0000000101014194 T __ZThn8_N5physx5cloth9ClothImplINS0_7SwClothEE18setSolverFrequencyEf
0000000101015c44 T __ZThn8_N5physx5cloth9ClothImplINS0_7SwClothEE20getMotionConstraintsEv
000000010101698c T __ZThn8_N5physx5cloth9ClothImplINS0_7SwClothEE20setSleepTestIntervalEj
00000001010140b0 T __ZThn8_N5physx5cloth9ClothImplINS0_7SwClothEE21setCentrifugalInertiaERKNS_6PxVec3E
00000001010159e0 T __ZThn8_N5physx5cloth9ClothImplINS0_7SwClothEE21setCollisionMassScaleEf
000000010101420c T __ZThn8_N5physx5cloth9ClothImplINS0_7SwClothEE21setStiffnessFrequencyEf
0000000101015d08 T __ZThn8_N5physx5cloth9ClothImplINS0_7SwClothEE22clearMotionConstraintsEv
0000000101015f84 T __ZThn8_N5physx5cloth9ClothImplINS0_7SwClothEE24getSeparationConstraintsEv
0000000101016508 T __ZThn8_N5physx5cloth9ClothImplINS0_7SwClothEE24setSelfCollisionDistanceEf
0000000101015a48 T __ZThn8_N5physx5cloth9ClothImplINS0_7SwClothEE24setTetherConstraintScaleEf
00000001010159a0 T __ZThn8_N5physx5cloth9ClothImplINS0_7SwClothEE25enableContinuousCollisionEb
00000001010142dc T __ZThn8_N5physx5cloth9ClothImplINS0_7SwClothEE25setAcceleationFilterWidthEj
000000010101658c T __ZThn8_N5physx5cloth9ClothImplINS0_7SwClothEE25setSelfCollisionStiffnessEf
0000000101016048 T __ZThn8_N5physx5cloth9ClothImplINS0_7SwClothEE26clearSeparationConstraintsEv
0000000101015d68 T __ZThn8_N5physx5cloth9ClothImplINS0_7SwClothEE28setMotionConstraintScaleBiasEff
0000000101015e0c T __ZThn8_N5physx5cloth9ClothImplINS0_7SwClothEE28setMotionConstraintStiffnessEf
0000000101015acc T __ZThn8_N5physx5cloth9ClothImplINS0_7SwClothEE28setTetherConstraintStiffnessEf
0000000101016a4c T __ZThn8_N5physx5cloth9ClothImplINS0_7SwClothEE6wakeUpEv
00000001010133b0 T __ZThn8_N5physx5cloth9ClothImplINS0_7SwClothEE8teleportERKNS_6PxVec3E
0000000101014fe4 T __ZThn8_N5physx5cloth9ClothImplINS0_7SwClothEE9setPlanesENS0_5RangeIKNS_6PxVec4EEEjj
0000000101013778 T __ZThn8_NK5physx5cloth9ClothImplINS0_7SwClothEE10getDampingEv
000000010101316c T __ZThn8_NK5physx5cloth9ClothImplINS0_7SwClothEE10getFactoryEv
00000001010134ec T __ZThn8_NK5physx5cloth9ClothImplINS0_7SwClothEE10getGravityEv
0000000101015a18 T __ZThn8_NK5physx5cloth9ClothImplINS0_7SwClothEE11getFrictionEv
00000001010132ec T __ZThn8_NK5physx5cloth9ClothImplINS0_7SwClothEE11getRotationEv
0000000101016a6c T __ZThn8_NK5physx5cloth9ClothImplINS0_7SwClothEE11getUserDataEv
0000000101014ff4 T __ZThn8_NK5physx5cloth9ClothImplINS0_7SwClothEE12getNumPlanesEv
0000000101013aa0 T __ZThn8_NK5physx5cloth9ClothImplINS0_7SwClothEE13getLinearDragEv
000000010101488c T __ZThn8_NK5physx5cloth9ClothImplINS0_7SwClothEE13getNumSpheresEv
0000000101013dc8 T __ZThn8_NK5physx5cloth9ClothImplINS0_7SwClothEE14getAngularDragEv
0000000101014abc T __ZThn8_NK5physx5cloth9ClothImplINS0_7SwClothEE14getNumCapsulesEv
000000010101529c T __ZThn8_NK5physx5cloth9ClothImplINS0_7SwClothEE14getNumConvexesEv
00000001010132dc T __ZThn8_NK5physx5cloth9ClothImplINS0_7SwClothEE14getTranslationEv
0000000101015960 T __ZThn8_NK5physx5cloth9ClothImplINS0_7SwClothEE15getNumTrianglesEv
0000000101016264 T __ZThn8_NK5physx5cloth9ClothImplINS0_7SwClothEE15getWindVelocityEv
0000000101013f50 T __ZThn8_NK5physx5cloth9ClothImplINS0_7SwClothEE16getLinearInertiaEv
000000010101403c T __ZThn8_NK5physx5cloth9ClothImplINS0_7SwClothEE17getAngularInertiaEv
00000001010169fc T __ZThn8_NK5physx5cloth9ClothImplINS0_7SwClothEE17getSleepPassCountEv
000000010101696c T __ZThn8_NK5physx5cloth9ClothImplINS0_7SwClothEE17getSleepThresholdEv
0000000101016378 T __ZThn8_NK5physx5cloth9ClothImplINS0_7SwClothEE18getDragCoefficientEv
00000001010164b0 T __ZThn8_NK5physx5cloth9ClothImplINS0_7SwClothEE18getLiftCoefficientEv
00000001010169ec T __ZThn8_NK5physx5cloth9ClothImplINS0_7SwClothEE18getSleepAfterCountEv
00000001010141ec T __ZThn8_NK5physx5cloth9ClothImplINS0_7SwClothEE18getSolverFrequencyEv
000000010101692c T __ZThn8_NK5physx5cloth9ClothImplINS0_7SwClothEE19getBoundingBoxScaleEv
000000010101690c T __ZThn8_NK5physx5cloth9ClothImplINS0_7SwClothEE19getNumRestPositionsEv
000000010101691c T __ZThn8_NK5physx5cloth9ClothImplINS0_7SwClothEE20getBoundingBoxCenterEv
00000001010169ac T __ZThn8_NK5physx5cloth9ClothImplINS0_7SwClothEE20getSleepTestIntervalEv
0000000101014128 T __ZThn8_NK5physx5cloth9ClothImplINS0_7SwClothEE21getCentrifugalInertiaEv
00000001010159c0 T __ZThn8_NK5physx5cloth9ClothImplINS0_7SwClothEE21getCollisionMassScaleEv
000000010101422c T __ZThn8_NK5physx5cloth9ClothImplINS0_7SwClothEE21getStiffnessFrequencyEv
0000000101013414 T __ZThn8_NK5physx5cloth9ClothImplINS0_7SwClothEE22getPreviousIterationDtEv
0000000101015da8 T __ZThn8_NK5physx5cloth9ClothImplINS0_7SwClothEE23getMotionConstraintBiasEv
0000000101015d38 T __ZThn8_NK5physx5cloth9ClothImplINS0_7SwClothEE23getNumMotionConstraintsEv
0000000101015d98 T __ZThn8_NK5physx5cloth9ClothImplINS0_7SwClothEE24getMotionConstraintScaleEv
0000000101016528 T __ZThn8_NK5physx5cloth9ClothImplINS0_7SwClothEE24getSelfCollisionDistanceEv
0000000101015a68 T __ZThn8_NK5physx5cloth9ClothImplINS0_7SwClothEE24getTetherConstraintScaleEv
0000000101016628 T __ZThn8_NK5physx5cloth9ClothImplINS0_7SwClothEE25getSelfCollisionStiffnessEv
000000010101438c T __ZThn8_NK5physx5cloth9ClothImplINS0_7SwClothEE26getAccelerationFilterWidthEv
0000000101016670 T __ZThn8_NK5physx5cloth9ClothImplINS0_7SwClothEE26getNumSelfCollisionIndicesEv
0000000101016184 T __ZThn8_NK5physx5cloth9ClothImplINS0_7SwClothEE27getNumParticleAccelerationsEv
0000000101016078 T __ZThn8_NK5physx5cloth9ClothImplINS0_7SwClothEE27getNumSeparationConstraintsEv
0000000101015ea8 T __ZThn8_NK5physx5cloth9ClothImplINS0_7SwClothEE28getMotionConstraintStiffnessEv
0000000101015a28 T __ZThn8_NK5physx5cloth9ClothImplINS0_7SwClothEE28getNumVirtualParticleWeightsEv
0000000101015b68 T __ZThn8_NK5physx5cloth9ClothImplINS0_7SwClothEE28getTetherConstraintStiffnessEv
0000000101015980 T __ZThn8_NK5physx5cloth9ClothImplINS0_7SwClothEE28isContinuousCollisionEnabledEv
0000000101016a18 T __ZThn8_NK5physx5cloth9ClothImplINS0_7SwClothEE8isAsleepEv
0000000101013154 T __ZThn8_NK5physx5cloth9ClothImplINS0_7SwClothEE9getFabricEv
                 U __ZTv0_n24_NSt3__114basic_iostreamIcNS_11char_traitsIcEEED0Ev
                 U __ZTv0_n24_NSt3__114basic_iostreamIcNS_11char_traitsIcEEED1Ev
0000000105389ab8 D __ZZN10apollo_p2p8lwip_mgr15send_udp_reportENSt3__112basic_stringIcNS1_11char_traitsIcEENS1_9allocatorIcEEEEE1c
000000010552cd88 D __ZZN12gcloud_voice14CThreadLogFile15UpdateLogConfigEvE10bSetNotify
000000010552d589 D __ZZN12gcloud_voice14CThreadLogFile17DealHistoryReportEvE8s_szLine
000000010552be10 D __ZZN12gcloud_voice14CThreadLogFile8InstanceEvE4inst
000000010552cd89 D __ZZN12gcloud_voice14CThreadLogFile9FormatLogER17_log_report_item_RiE7s_szLog
00000001053a23c8 D __ZZN15CTXAppidConvert13GetAppIdTableEvE12arAppIdTable
000000010538b0f8 D __ZZN5ABase5CTime11GetInstanceEvE10s_Instance
000000010554f1d0 D __ZZN5local3Tri4neibEiiE2er
00000001055269f0 D __ZZN5physx2Gu8Midphase11outputErrorEvE14reportOnlyOnce
0000000105528334 D __ZZN5physx2Sn24readStridedFlagsPropertyIjEEvRNS_9XmlReaderEPKcRPT_RjS9_RNS_18XmlMemoryAllocatorEPKNS_11PxU32ToNameEE8theCount
0000000105528170 D __ZZN5physx2Sn25readStridedBufferPropertyINS0_8TriangleIjEEEEvRNS_9XmlReaderEPKcRPT_RjSB_RNS_18XmlMemoryAllocatorEE8theCount
0000000105528314 D __ZZN5physx2Sn25readStridedBufferPropertyINS_15PxClothParticleEEEvRNS_9XmlReaderEPKcRPT_RjSA_RNS_18XmlMemoryAllocatorEE8theCount
0000000105528308 D __ZZN5physx2Sn25readStridedBufferPropertyINS_18PxClothFabricPhaseEEEvRNS_9XmlReaderEPKcRPT_RjSA_RNS_18XmlMemoryAllocatorEE8theCount
00000001055281c0 D __ZZN5physx2Sn25readStridedBufferPropertyINS_19PxHeightFieldSampleEEEvRNS_9XmlReaderEPKcRPT_RjSA_RNS_18XmlMemoryAllocatorEE8theCount
000000010552831c D __ZZN5physx2Sn25readStridedBufferPropertyINS_21PxClothCollisionPlaneEEEvRNS_9XmlReaderEPKcRPT_RjSA_RNS_18XmlMemoryAllocatorEE8theCount
0000000105528318 D __ZZN5physx2Sn25readStridedBufferPropertyINS_22PxClothCollisionSphereEEEvRNS_9XmlReaderEPKcRPT_RjSA_RNS_18XmlMemoryAllocatorEE8theCount
0000000105528320 D __ZZN5physx2Sn25readStridedBufferPropertyINS_24PxClothCollisionTriangleEEEvRNS_9XmlReaderEPKcRPT_RjSA_RNS_18XmlMemoryAllocatorEE8theCount
0000000105528328 D __ZZN5physx2Sn25readStridedBufferPropertyINS_31PxClothParticleMotionConstraintEEEvRNS_9XmlReaderEPKcRPT_RjSA_RNS_18XmlMemoryAllocatorEE8theCount
000000010552832c D __ZZN5physx2Sn25readStridedBufferPropertyINS_35PxClothParticleSeparationConstraintEEEvRNS_9XmlReaderEPKcRPT_RjSA_RNS_18XmlMemoryAllocatorEE8theCount
0000000105528330 D __ZZN5physx2Sn25readStridedBufferPropertyINS_6PxVec3EEEvRNS_9XmlReaderEPKcRPT_RjSA_RNS_18XmlMemoryAllocatorEE8theCount
0000000105528324 D __ZZN5physx2Sn25readStridedBufferPropertyINS_6PxVec4EEEvRNS_9XmlReaderEPKcRPT_RjSA_RNS_18XmlMemoryAllocatorEE8theCount
000000010552830c D __ZZN5physx2Sn25readStridedBufferPropertyIfEEvRNS_9XmlReaderEPKcRPT_RjS9_RNS_18XmlMemoryAllocatorEE8theCount
0000000105528178 D __ZZN5physx2Sn25readStridedBufferPropertyIhEEvRNS_9XmlReaderEPKcRPT_RjS9_RNS_18XmlMemoryAllocatorEE8theCount
0000000105528310 D __ZZN5physx2Sn25readStridedBufferPropertyIjEEvRNS_9XmlReaderEPKcRPT_RjS9_RNS_18XmlMemoryAllocatorEE8theCount
0000000105528174 D __ZZN5physx2Sn25readStridedBufferPropertyItEEvRNS_9XmlReaderEPKcRPT_RjS9_RNS_18XmlMemoryAllocatorEE8theCount
000000010551d458 D __ZZN9SingletonIN11tss_channel10TssChannelEE11GetInstanceEvE7object_
000000010551d750 D __ZZN9SingletonIN11tss_channel11IoctlHelperEE11GetInstanceEvE7object_
00000001055209d0 D __ZZN9SingletonIN11tss_channel19CSQualityStatHelperEE11GetInstanceEvE7object_
000000010551d898 D __ZZN9SingletonIN11tss_channel9CSChannelEE11GetInstanceEvE7object_
000000010551c048 D __ZZNK5Eigen14QuaternionBaseINS_10QuaternionIfLi2EEEE5slerpIS2_EENS1_IfLi0EEERKfRKNS0_IT_EEE3one
                 U ___CFConstantStringClassReference
                 U ___NSArray0__
                 U ___NSDictionary0__
                 U ___assert_rtn
                 U ___cxa_allocate_exception
                 U ___cxa_atexit
                 U ___cxa_bad_typeid
                 U ___cxa_begin_catch
                 U ___cxa_call_unexpected
                 U ___cxa_current_exception_type
                 U ___cxa_demangle
                 U ___cxa_end_catch
                 U ___cxa_free_exception
                 U ___cxa_get_exception_ptr
                 U ___cxa_guard_abort
                 U ___cxa_guard_acquire
                 U ___cxa_guard_release
                 U ___cxa_pure_virtual
                 U ___cxa_rethrow
00000001007de398 T ___cxa_throw
                 U ___dynamic_cast
                 U ___error
                 U ___exp10
                 U ___exp10f
                 U ___gxx_personality_v0
                 U ___isfinitef
                 U ___maskrune
                 U ___memcpy_chk
                 U ___memmove_chk
                 U ___memset_chk
                 U ___objc_personality_v0
                 U ___sincos_stret
                 U ___sincosf_stret
                 U ___snprintf_chk
                 U ___sprintf_chk
                 U ___srget
                 U ___stack_chk_fail
                 U ___stack_chk_guard
                 U ___stderrp
                 U ___stdinp
                 U ___stdoutp
                 U ___strcat_chk
                 U ___strcpy_chk
                 U ___strlcpy_chk
                 U ___strncat_chk
                 U ___strncpy_chk
                 U ___tolower
                 U ___toupper
                 U ___vsnprintf_chk
                 U __dispatch_data_empty
                 U __dispatch_main_q
                 U __dispatch_queue_attr_concurrent
                 U __dispatch_source_type_read
                 U __dispatch_source_type_timer
                 U __dispatch_source_type_vnode
                 U __dispatch_source_type_write
                 U __dyld_get_image_header
                 U __dyld_get_image_name
                 U __dyld_get_image_vmaddr_slide
                 U __dyld_image_count
                 U __dyld_register_func_for_add_image
                 U __dyld_register_func_for_remove_image
                 U __exit
0000000100000000 T __mh_execute_header
                 U __objc_empty_cache
                 U __os_log_default
                 U __os_log_internal
                 U _abort
                 U _abs
                 U _accept
                 U _access
                 U _acos
                 U _acosf
                 U _adler32
                 U _alarm
                 U _arc4random
                 U _arc4random_buf
                 U _arc4random_uniform
                 U _asin
                 U _asinf
                 U _asl_free
                 U _asl_get
                 U _asl_log
                 U _asl_new
                 U _asl_open
                 U _asl_search
                 U _asl_send
                 U _asl_set
                 U _asl_set_filter
                 U _asl_set_query
                 U _aslresponse_free
                 U _aslresponse_next
                 U _atan
                 U _atan2
                 U _atan2f
                 U _atanf
                 U _atexit
                 U _atof
                 U _atoi
                 U _atol
                 U _atoll
                 U _backtrace
                 U _backtrace_symbols
                 U _basename
                 U _bind
                 U _bsearch
                 U _bzero
                 U _calloc
                 U _chmod
                 U _class_addIvar
                 U _class_addMethod
                 U _class_conformsToProtocol
                 U _class_copyIvarList
                 U _class_copyMethodList
                 U _class_copyPropertyList
                 U _class_getInstanceMethod
                 U _class_getInstanceSize
                 U _class_getInstanceVariable
                 U _class_getName
                 U _class_getProperty
                 U _class_getSuperclass
                 U _class_replaceMethod
                 U _class_respondsToSelector
                 U _clearerr
                 U _clock
                 U _clock_gettime
                 U _close
                 U _closedir
                 U _compress
                 U _compress2
                 U _compressBound
                 U _connect
                 U _connectx
                 U _cos
                 U _cosf
                 U _cosh
                 U _crc32
                 U _deflate
                 U _deflateEnd
                 U _deflateInit2_
                 U _deflateReset
                 U _difftime
                 U _digittoint
                 U _dispatch_after
                 U _dispatch_async
                 U _dispatch_barrier_async
                 U _dispatch_barrier_sync
                 U _dispatch_data_apply
                 U _dispatch_data_create
                 U _dispatch_data_create_concat
                 U _dispatch_data_create_subrange
                 U _dispatch_data_get_size
                 U _dispatch_get_current_queue
                 U _dispatch_get_global_queue
                 U _dispatch_get_specific
                 U _dispatch_group_async
                 U _dispatch_group_create
                 U _dispatch_group_enter
                 U _dispatch_group_leave
                 U _dispatch_group_notify
                 U _dispatch_group_wait
                 U _dispatch_once
                 U _dispatch_once_f
                 U _dispatch_queue_attr_make_with_qos_class
                 U _dispatch_queue_create
                 U _dispatch_queue_get_label
                 U _dispatch_queue_set_specific
                 U _dispatch_release
                 U _dispatch_resume
                 U _dispatch_retain
                 U _dispatch_semaphore_create
                 U _dispatch_semaphore_signal
                 U _dispatch_semaphore_wait
                 U _dispatch_set_target_queue
                 U _dispatch_source_cancel
                 U _dispatch_source_create
                 U _dispatch_source_get_data
                 U _dispatch_source_set_cancel_handler
                 U _dispatch_source_set_event_handler
                 U _dispatch_source_set_timer
                 U _dispatch_source_testcancel
                 U _dispatch_suspend
                 U _dispatch_sync
                 U _dispatch_time
                 U _dispatch_walltime
                 U _div
                 U _dladdr
                 U _dlclose
                 U _dlerror
                 U _dlopen
                 U _dlsym
                 U _drand48
                 U _dup2
                 U _exception_raise
                 U _exception_raise_state
                 U _exception_raise_state_identity
                 U _execl
                 U _exit
                 U _exp
                 U _exp2
                 U _exp2f
                 U _expf
                 U _fclose
                 U _fcntl
                 U _fdopen
                 U _fegetenv
                 U _feof
                 U _ferror
                 U _fesetenv
                 U _fflush
                 U _fgetc
                 U _fgets
                 U _fileno
                 U _flockfile
                 U _fmod
                 U _fmodf
                 U _fopen
                 U _fopen$DARWIN_EXTSN
                 U _fork
                 U _fprintf
                 U _fputc
                 U _fputs
                 U _fread
                 U _free
                 U _freeaddrinfo
                 U _freeifaddrs
                 U _freopen
                 U _frexp
                 U _frexpf
                 U _fscanf
                 U _fseek
                 U _fseeko
                 U _fstat
                 U _ftell
                 U _ftello
                 U _ftruncate
                 U _funlockfile
                 U _fwrite
00000001055219c0 D _gSimd4fEpsilon
00000001055219d0 D _gSimd4fFloatMax
0000000105521990 D _gSimd4fHalf
00000001055219e0 D _gSimd4fMaskX
0000000105521a00 D _gSimd4fMaskXYZ
0000000105521980 D _gSimd4fMinusOne
00000001055219b0 D _gSimd4fPi
00000001055219a0 D _gSimd4fTwo
0000000105521a18 D _gSimd4iOne
                 U _gai_strerror
                 U _get_crc_table
                 U _getaddrinfo
                 U _getc
                 U _getchar
                 U _getcwd
                 U _getegid
                 U _getenv
                 U _geteuid
                 U _getgid
                 U _gethostbyaddr
                 U _gethostbyname
                 U _gethostname
                 U _getifaddrs
                 U _getnameinfo
                 U _getpagesize
                 U _getpeername
                 U _getpid
                 U _getprogname
                 U _getpwuid
                 U _getpwuid_r
                 U _getrusage
                 U _getsockname
                 U _getsockopt
                 U _gettimeofday
                 U _getuid
                 U _getxattr
                 U _glActiveTexture
                 U _glAttachShader
                 U _glBeginQueryEXT
                 U _glBindAttribLocation
                 U _glBindBuffer
                 U _glBindFramebuffer
                 U _glBindRenderbuffer
                 U _glBindTexture
                 U _glBlendEquation
                 U _glBlendEquationSeparate
                 U _glBlendFunc
                 U _glBlendFuncSeparate
                 U _glBufferData
                 U _glBufferSubData
                 U _glClear
                 U _glClearColor
                 U _glClearDepthf
                 U _glClearStencil
                 U _glClientWaitSyncAPPLE
                 U _glColorMask
                 U _glCompileShader
                 U _glCompressedTexImage2D
                 U _glCompressedTexSubImage2D
                 U _glCopyTextureLevelsAPPLE
                 U _glCreateProgram
                 U _glCreateShader
                 U _glCullFace
                 U _glDeleteBuffers
                 U _glDeleteFramebuffers
                 U _glDeleteProgram
                 U _glDeleteRenderbuffers
                 U _glDeleteShader
                 U _glDeleteSyncAPPLE
                 U _glDeleteTextures
                 U _glDepthFunc
                 U _glDepthMask
                 U _glDepthRangef
                 U _glDisable
                 U _glDisableVertexAttribArray
                 U _glDiscardFramebufferEXT
                 U _glDrawArrays
                 U _glDrawArraysInstancedEXT
                 U _glDrawElements
                 U _glDrawElementsInstancedEXT
                 U _glEnable
                 U _glEnableVertexAttribArray
                 U _glEndQueryEXT
                 U _glFenceSyncAPPLE
                 U _glFlush
                 U _glFlushMappedBufferRangeEXT
                 U _glFramebufferRenderbuffer
                 U _glFramebufferTexture2D
                 U _glGenBuffers
                 U _glGenFramebuffers
                 U _glGenRenderbuffers
                 U _glGenTextures
                 U _glGetBooleanv
                 U _glGetError
                 U _glGetIntegerv
                 U _glGetObjectLabelEXT
                 U _glGetProgramiv
                 U _glGetQueryObjectuivEXT
                 U _glGetRenderbufferParameteriv
                 U _glGetShaderPrecisionFormat
                 U _glGetString
                 U _glGetUniformLocation
                 U _glLabelObjectEXT
                 U _glLinkProgram
                 U _glMapBufferRangeEXT
                 U _glPixelStorei
                 U _glPolygonOffset
                 U _glPopGroupMarkerEXT
                 U _glPushGroupMarkerEXT
                 U _glReadPixels
                 U _glRenderbufferStorage
                 U _glScissor
                 U _glShaderSource
                 U _glStencilFunc
                 U _glStencilFuncSeparate
                 U _glStencilMask
                 U _glStencilOp
                 U _glStencilOpSeparate
                 U _glTexImage2D
                 U _glTexParameteri
                 U _glTexStorage2DEXT
                 U _glTexSubImage2D
                 U _glUniform1i
                 U _glUniform4fv
                 U _glUniform4iv
                 U _glUnmapBufferOES
                 U _glUseProgram
                 U _glVertexAttrib4fv
                 U _glVertexAttribDivisorEXT
                 U _glVertexAttribPointer
                 U _glViewport
                 U _gmtime
                 U _gmtime_r
                 U _gzclose
                 U _gzerror
                 U _gzopen
                 U _gzread
                 U _gzwrite
                 U _host_page_size
                 U _host_processor_info
                 U _host_statistics
                 U _if_nametoindex
                 U _imp_implementationWithBlock
                 U _in6addr_any
                 U _in6addr_loopback
                 U _inet_addr
                 U _inet_aton
                 U _inet_ntoa
                 U _inet_ntop
                 U _inet_pton
                 U _inflate
                 U _inflateEnd
                 U _inflateInit2_
                 U _inflateInit_
                 U _inflateReset
                 U _ioctl
                 U _isxdigit
                 U _ivar_getName
                 U _ivar_getOffset
                 U _kCAFillModeForwards
                 U _kCAFilterLinear
                 U _kCAFilterNearest
                 U _kCAMediaTimingFunctionEaseInEaseOut
                 U _kCATransitionFade
                 U _kCATransitionFromTop
                 U _kCATransitionPush
                 U _kCFAbsoluteTimeIntervalSince1970
                 U _kCFAllocatorDefault
                 U _kCFAllocatorSystemDefault
                 U _kCFBooleanFalse
                 U _kCFBooleanTrue
                 U _kCFBundleExecutableKey
                 U _kCFBundleIdentifierKey
                 U _kCFBundleNameKey
                 U _kCFBundleVersionKey
                 U _kCFCopyStringDictionaryKeyCallBacks
                 U _kCFCoreFoundationVersionNumber
                 U _kCFErrorDomainCFNetwork
                 U _kCFErrorLocalizedDescriptionKey
                 U _kCFGetAddrInfoFailureKey
                 U _kCFHTTPVersion1_1
                 U _kCFLocaleCountryCode
                 U _kCFLocaleLanguageCode
                 U _kCFProxyAutoConfigurationJavaScriptKey
                 U _kCFProxyAutoConfigurationURLKey
                 U _kCFProxyHostNameKey
                 U _kCFProxyPasswordKey
                 U _kCFProxyPortNumberKey
                 U _kCFProxyTypeAutoConfigurationJavaScript
                 U _kCFProxyTypeAutoConfigurationURL
                 U _kCFProxyTypeHTTP
                 U _kCFProxyTypeHTTPS
                 U _kCFProxyTypeKey
                 U _kCFProxyTypeSOCKS
                 U _kCFProxyUsernameKey
                 U _kCFRunLoopCommonModes
                 U _kCFRunLoopDefaultMode
                 U _kCFStreamErrorDomainNetDB
                 U _kCFStreamNetworkServiceType
                 U _kCFStreamNetworkServiceTypeVoIP
                 U _kCFStreamPropertySSLPeerTrust
                 U _kCFStreamPropertySSLSettings
                 U _kCFStreamPropertyShouldCloseNativeSocket
                 U _kCFStreamPropertySocketSecurityLevel
                 U _kCFStreamSSLValidatesCertificateChain
                 U _kCFStringTransformStripCombiningMarks
                 U _kCFStringTransformToLatin
                 U _kCFTypeArrayCallBacks
                 U _kCFTypeDictionaryKeyCallBacks
                 U _kCFTypeDictionaryValueCallBacks
                 U _kCLDistanceFilterNone
                 U _kCLLocationAccuracyBest
                 U _kCMTimeZero
                 U _kCNNetworkInfoKeyBSSID
                 U _kCNNetworkInfoKeySSID
                 U _kCTFontAttributeName
                 U _kCTFontPostScriptNameKey
                 U _kCTForegroundColorAttributeName
                 U _kCTForegroundColorFromContextAttributeName
                 U _kCTKernAttributeName
                 U _kCTParagraphStyleAttributeName
                 U _kCTSuperscriptAttributeName
                 U _kCTUnderlineStyleAttributeName
                 U _kCVPixelBufferBytesPerRowAlignmentKey
                 U _kCVPixelBufferMetalCompatibilityKey
                 U _kCVPixelBufferOpenGLESCompatibilityKey
                 U _kCVPixelBufferPixelFormatTypeKey
                 U _kEAGLColorFormatRGBA8
                 U _kEAGLDrawablePropertyColorFormat
                 U _kEAGLDrawablePropertyRetainedBacking
                 U _kSecAttrAccessControl
                 U _kSecAttrAccessGroup
                 U _kSecAttrAccessible
                 U _kSecAttrAccessibleAfterFirstUnlock
                 U _kSecAttrAccessibleAfterFirstUnlockThisDeviceOnly
                 U _kSecAttrAccessibleAlways
                 U _kSecAttrAccessibleAlwaysThisDeviceOnly
                 U _kSecAttrAccessibleWhenPasscodeSetThisDeviceOnly
                 U _kSecAttrAccessibleWhenUnlocked
                 U _kSecAttrAccessibleWhenUnlockedThisDeviceOnly
                 U _kSecAttrAccount
                 U _kSecAttrApplicationTag
                 U _kSecAttrAuthenticationType
                 U _kSecAttrAuthenticationTypeDPA
                 U _kSecAttrAuthenticationTypeDefault
                 U _kSecAttrAuthenticationTypeHTMLForm
                 U _kSecAttrAuthenticationTypeHTTPBasic
                 U _kSecAttrAuthenticationTypeHTTPDigest
                 U _kSecAttrAuthenticationTypeMSN
                 U _kSecAttrAuthenticationTypeNTLM
                 U _kSecAttrAuthenticationTypeRPA
                 U _kSecAttrComment
                 U _kSecAttrDescription
                 U _kSecAttrGeneric
                 U _kSecAttrIsPermanent
                 U _kSecAttrKeyClass
                 U _kSecAttrKeyClassPrivate
                 U _kSecAttrKeyClassPublic
                 U _kSecAttrKeySizeInBits
                 U _kSecAttrKeyType
                 U _kSecAttrKeyTypeRSA
                 U _kSecAttrLabel
                 U _kSecAttrModificationDate
                 U _kSecAttrPort
                 U _kSecAttrProtocol
                 U _kSecAttrProtocolAFP
                 U _kSecAttrProtocolAppleTalk
                 U _kSecAttrProtocolDAAP
                 U _kSecAttrProtocolEPPC
                 U _kSecAttrProtocolFTP
                 U _kSecAttrProtocolFTPAccount
                 U _kSecAttrProtocolFTPProxy
                 U _kSecAttrProtocolFTPS
                 U _kSecAttrProtocolHTTP
                 U _kSecAttrProtocolHTTPProxy
                 U _kSecAttrProtocolHTTPS
                 U _kSecAttrProtocolHTTPSProxy
                 U _kSecAttrProtocolIMAP
                 U _kSecAttrProtocolIRC
                 U _kSecAttrProtocolIRCS
                 U _kSecAttrProtocolLDAP
                 U _kSecAttrProtocolLDAPS
                 U _kSecAttrProtocolNNTP
                 U _kSecAttrProtocolNNTPS
                 U _kSecAttrProtocolPOP3
                 U _kSecAttrProtocolPOP3S
                 U _kSecAttrProtocolRTSP
                 U _kSecAttrProtocolRTSPProxy
                 U _kSecAttrProtocolSMB
                 U _kSecAttrProtocolSMTP
                 U _kSecAttrProtocolSOCKS
                 U _kSecAttrProtocolSSH
                 U _kSecAttrProtocolTelnet
                 U _kSecAttrProtocolTelnetS
                 U _kSecAttrServer
                 U _kSecAttrService
                 U _kSecAttrSynchronizable
                 U _kSecAttrSynchronizableAny
                 U _kSecClass
                 U _kSecClassGenericPassword
                 U _kSecClassIdentity
                 U _kSecClassInternetPassword
                 U _kSecClassKey
                 U _kSecImportExportPassphrase
                 U _kSecImportItemIdentity
                 U _kSecKeyAlgorithmRSAEncryptionPKCS1
                 U _kSecMatchLimit
                 U _kSecMatchLimitAll
                 U _kSecMatchLimitOne
                 U _kSecMatchPolicy
                 U _kSecPrivateKeyAttrs
                 U _kSecPublicKeyAttrs
                 U _kSecRandomDefault
                 U _kSecReturnAttributes
                 U _kSecReturnData
                 U _kSecReturnPersistentRef
                 U _kSecReturnRef
                 U _kSecSharedPassword
                 U _kSecUseAuthenticationUI
                 U _kSecUseAuthenticationUIFail
                 U _kSecUseNoAuthenticationUI
                 U _kSecUseOperationPrompt
                 U _kSecValueData
                 U _kUTTagClassFilenameExtension
                 U _kUTTagClassMIMEType
                 U _kUTTypeGIF
                 U _kUTTypeImage
                 U _kUTTypeJPEG
                 U _kUTTypeLog
                 U _kUTTypePDF
                 U _kUTTypePNG
                 U _kUTTypePlainText
                 U _kUTTypeQuickTimeMovie
                 U _kUTTypeRTF
                 U _kUTTypeRTFD
                 U _kUTTypeTIFF
                 U _kUTTypeText
                 U _kUTTypeURL
                 U _kill
                 U _ldexp
                 U _ldexpf
                 U _link_ntoa
                 U _listen
                 U _llround
                 U _localeconv
                 U _localtime
                 U _localtime_r
                 U _log
                 U _log10
                 U _log10f
                 U _log2
                 U _log2f
                 U _logf
                 U _longjmp
                 U _lround
                 U _lroundf
                 U _lseek
                 U _lstat
                 U _mach_absolute_time
                 U _mach_host_self
                 U _mach_make_memory_entry_64
                 U _mach_msg
                 U _mach_port_allocate
                 U _mach_port_deallocate
                 U _mach_port_insert_right
                 U _mach_port_mod_refs
                 U _mach_port_move_member
                 U _mach_port_request_notification
                 U _mach_task_self_
                 U _mach_thread_self
                 U _mach_timebase_info
                 U _malloc
                 U _malloc_size
                 U _memchr
                 U _memcmp
                 U _memcpy
                 U _memmove
                 U _memset
                 U _memset_pattern16
                 U _memset_pattern4
                 U _memset_pattern8
                 U _method_copyReturnType
                 U _method_exchangeImplementations
                 U _method_getImplementation
                 U _method_getName
                 U _method_getTypeEncoding
                 U _method_setImplementation
                 U _mkdir
                 U _mkstemp
                 U _mktime
                 U _mmap
                 U _modf
                 U _mprotect
                 U _munmap
                 U _nanosleep
                 U _nextafter
                 U _notify_cancel
                 U _notify_register_dispatch
                 U _objc_allocateClassPair
                 U _objc_autorelease
                 U _objc_autoreleasePoolPop
                 U _objc_autoreleasePoolPush
                 U _objc_autoreleaseReturnValue
                 U _objc_begin_catch
                 U _objc_constructInstance
                 U _objc_copyClassList
                 U _objc_copyCppObjectAtomic
                 U _objc_copyImageNames
                 U _objc_copyStruct
                 U _objc_copyWeak
                 U _objc_destroyWeak
                 U _objc_destructInstance
                 U _objc_end_catch
                 U _objc_enumerationMutation
                 U _objc_exception_rethrow
                 U _objc_exception_throw
                 U _objc_getAssociatedObject
                 U _objc_getClass
                 U _objc_getClassList
                 U _objc_getProperty
                 U _objc_getProtocol
                 U _objc_initWeak
                 U _objc_loadWeak
                 U _objc_loadWeakRetained
                 U _objc_lookUpClass
                 U _objc_moveWeak
                 U _objc_msgSend
                 U _objc_msgSendSuper
                 U _objc_msgSendSuper2
                 U _objc_registerClassPair
                 U _objc_release
                 U _objc_retain
                 U _objc_retainAutorelease
                 U _objc_retainAutoreleaseReturnValue
                 U _objc_retainAutoreleasedReturnValue
                 U _objc_retainBlock
                 U _objc_setAssociatedObject
                 U _objc_setProperty
                 U _objc_setProperty_atomic
                 U _objc_setProperty_atomic_copy
                 U _objc_setProperty_nonatomic
                 U _objc_setProperty_nonatomic_copy
                 U _objc_storeStrong
                 U _objc_storeWeak
                 U _objc_sync_enter
                 U _objc_sync_exit
                 U _objc_terminate
                 U _objc_unsafeClaimAutoreleasedReturnValue
                 U _object_getClass
                 U _object_getClassName
                 U _object_getIvar
                 U _object_setClass
                 U _object_setIvar
                 U _open
                 U _opendir
                 U _pause
                 U _pclose
                 U _perror
                 U _pipe
                 U _poll
                 U _popen$DARWIN_EXTSN
                 U _posix_madvise
                 U _pow
                 U _powf
                 U _printf
                 U _property_copyAttributeValue
                 U _property_getAttributes
                 U _property_getName
                 U _protocol_getMethodDescription
                 U _pthread_attr_destroy
                 U _pthread_attr_getinheritsched
                 U _pthread_attr_getschedparam
                 U _pthread_attr_init
                 U _pthread_attr_setdetachstate
                 U _pthread_attr_setinheritsched
                 U _pthread_attr_setschedparam
                 U _pthread_attr_setschedpolicy
                 U _pthread_attr_setstacksize
                 U _pthread_cancel
                 U _pthread_cond_broadcast
                 U _pthread_cond_destroy
                 U _pthread_cond_init
                 U _pthread_cond_signal
                 U _pthread_cond_timedwait
                 U _pthread_cond_wait
                 U _pthread_condattr_destroy
                 U _pthread_condattr_init
                 U _pthread_create
                 U _pthread_detach
                 U _pthread_equal
                 U _pthread_exit
                 U _pthread_from_mach_thread_np
                 U _pthread_get_stackaddr_np
                 U _pthread_get_stacksize_np
                 U _pthread_getname_np
                 U _pthread_getschedparam
                 U _pthread_getspecific
                 U _pthread_join
                 U _pthread_key_create
                 U _pthread_key_delete
                 U _pthread_mach_thread_np
                 U _pthread_mutex_destroy
                 U _pthread_mutex_init
                 U _pthread_mutex_lock
                 U _pthread_mutex_trylock
                 U _pthread_mutex_unlock
                 U _pthread_mutexattr_destroy
                 U _pthread_mutexattr_init
                 U _pthread_mutexattr_setprotocol
                 U _pthread_mutexattr_settype
                 U _pthread_once
                 U _pthread_rwlock_destroy
                 U _pthread_rwlock_init
                 U _pthread_rwlock_rdlock
                 U _pthread_rwlock_unlock
                 U _pthread_rwlock_wrlock
                 U _pthread_self
                 U _pthread_setname_np
                 U _pthread_setschedparam
                 U _pthread_setspecific
                 U _pthread_sigmask
                 U _pthread_threadid_np
                 U _putc
                 U _putchar
                 U _puts
                 U _qsort
                 U _raise
                 U _rand
                 U _random
                 U _read
                 U _readdir
                 U _readlink
                 U _realloc
                 U _recv
                 U _recvfrom
                 U _recvmsg
                 U _regcomp
                 U _regexec
                 U _remove
                 U _removexattr
                 U _rename
                 U _rewind
                 U _rmdir
                 U _sched_get_priority_max
                 U _sched_get_priority_min
                 U _sched_yield
                 U _sel_getName
                 U _sel_registerName
                 U _select
                 U _select$DARWIN_EXTSN
                 U _sem_close
                 U _sem_destroy
                 U _sem_init
                 U _sem_open
                 U _sem_post
                 U _sem_unlink
                 U _sem_wait
                 U _semaphore_create
                 U _semaphore_destroy
                 U _semaphore_signal
                 U _semaphore_wait
                 U _send
                 U _sendto
                 U _setbuf
                 U _setjmp
                 U _setlocale
                 U _setrlimit
                 U _setsockopt
                 U _setvbuf
                 U _setxattr
                 U _shutdown
                 U _sigaction
                 U _sigaltstack
                 U _siglongjmp
                 U _signal
                 U _sigsetjmp
                 U _sin
                 U _sinf
                 U _sinh
                 U _sinhf
                 U _sleep
                 U _snprintf
                 U _socket
                 U _socketpair
                 U _sprintf
                 U _sqlite3_bind_blob
                 U _sqlite3_bind_double
                 U _sqlite3_bind_int
                 U _sqlite3_bind_int64
                 U _sqlite3_bind_null
                 U _sqlite3_bind_parameter_count
                 U _sqlite3_bind_parameter_index
                 U _sqlite3_bind_text
                 U _sqlite3_busy_handler
                 U _sqlite3_changes
                 U _sqlite3_clear_bindings
                 U _sqlite3_close
                 U _sqlite3_column_blob
                 U _sqlite3_column_bytes
                 U _sqlite3_column_count
                 U _sqlite3_column_double
                 U _sqlite3_column_int
                 U _sqlite3_column_int64
                 U _sqlite3_column_name
                 U _sqlite3_column_text
                 U _sqlite3_column_type
                 U _sqlite3_create_function
                 U _sqlite3_data_count
                 U _sqlite3_errcode
                 U _sqlite3_errmsg
                 U _sqlite3_exec
                 U _sqlite3_finalize
                 U _sqlite3_free
                 U _sqlite3_last_insert_rowid
                 U _sqlite3_libversion
                 U _sqlite3_mprintf
                 U _sqlite3_next_stmt
                 U _sqlite3_open
                 U _sqlite3_open_v2
                 U _sqlite3_prepare_v2
                 U _sqlite3_reset
                 U _sqlite3_sleep
                 U _sqlite3_step
                 U _sqlite3_threadsafe
                 U _sqlite3_user_data
                 U _srand
                 U _srand48
                 U _srandom
                 U _sscanf
                 U _stat
                 U _statfs
                 U _strcasecmp
                 U _strcasestr
                 U _strcat
                 U _strchr
                 U _strcmp
                 U _strcoll
                 U _strcpy
                 U _strcspn
                 U _strdup
                 U _strerror
                 U _strerror_r
                 U _strftime
                 U _strlcat
                 U _strlcpy
                 U _strlen
                 U _strncasecmp
                 U _strncat
                 U _strncmp
                 U _strncpy
                 U _strnlen
                 U _strpbrk
                 U _strrchr
                 U _strspn
                 U _strstr
                 U _strtod
                 U _strtof
                 U _strtok
                 U _strtok_r
                 U _strtol
                 U _strtoll
                 U _strtoul
                 U _strtoull
                 U _strxfrm
                 U _swap_fat_arch
                 U _swap_fat_header
                 U _swap_mach_header
                 U _swap_mach_header_64
                 U _symlink
                 U _syscall
                 U _sysconf
                 U _sysctl
                 U _sysctlbyname
                 U _tan
                 U _tanf
                 U _tanh
                 U _task_get_exception_ports
                 U _task_info
                 U _task_swap_exception_ports
                 U _task_threads
                 U _thread_get_exception_ports
                 U _thread_get_state
                 U _thread_info
                 U _thread_policy_set
                 U _thread_resume
                 U _thread_suspend
                 U _thread_swap_exception_ports
                 U _time
                 U _tmpfile
                 U _tmpnam
                 U _tzname
                 U _tzset
                 U _umask
                 U _uname
                 U _uncompress
                 U _ungetc
                 U _unlink
                 U _usleep
                 U _utime
                 U _uuid_generate
                 U _vfprintf
                 U _vm_allocate
                 U _vm_deallocate
                 U _vm_map
                 U _vm_page_mask
                 U _vm_page_size
                 U _vm_protect
                 U _vm_read
                 U _vm_read_overwrite
                 U _vm_region_64
                 U _vm_write
                 U _vprintf
                 U _vsnprintf
                 U _waitpid
                 U _wcslen
                 U _wcsncpy
                 U _wcstombs
                 U _write
                 U _writev
                 U _zError
                 U _zlibVersion
                 U dyld_stub_binder
